

Microchip MPLAB XC8 Assembler V2.31 build 20201012212115 
                                                                                               Wed Jun 30 09:26:43 2021

Microchip MPLAB XC8 C Compiler v2.31 (Free license) build 20201012212115 Og1 
     1                           	processor	18F47Q10
     2                           	fnconf	rparam,??,?,0
     3                           	pagewidth 120
     4                           	opt	flic
     5                           	psect	cinit,global,reloc=2,class=CODE,delta=1
     6                           	psect	cstackCOMRAM,global,class=COMRAM,space=1,delta=1,lowdata,noexec
     7                           	psect	text0,global,reloc=2,class=CODE,delta=1
     8                           	psect	text1,global,reloc=2,class=CODE,delta=1,group=1
     9                           	psect	text2,global,reloc=2,class=CODE,delta=1,group=1
    10                           	psect	text3,global,reloc=2,class=CODE,delta=1
    11                           	psect	text4,global,reloc=2,class=CODE,delta=1
    12                           	psect	text5,global,reloc=2,class=CODE,delta=1
    13                           	psect	text6,global,reloc=2,class=CODE,delta=1
    14                           	psect	text7,global,reloc=2,class=CODE,delta=1
    15                           	psect	text8,global,reloc=2,class=CODE,delta=1
    16                           	psect	text9,global,reloc=2,class=CODE,delta=1
    17                           	psect	text10,global,reloc=2,class=CODE,delta=1
    18                           	psect	text11,global,reloc=2,class=CODE,delta=1
    19                           	psect	text12,global,reloc=2,class=CODE,delta=1
    20                           	psect	text13,global,reloc=2,class=CODE,delta=1
    21                           	psect	text14,global,reloc=2,class=CODE,delta=1
    22                           	psect	text15,global,reloc=2,class=CODE,delta=1
    23                           	psect	text16,global,reloc=2,class=CODE,delta=1
    24                           	psect	text17,global,reloc=2,class=CODE,delta=1
    25                           	psect	text18,global,reloc=2,class=CODE,delta=1
    26                           	psect	text19,global,reloc=2,class=CODE,delta=1
    27                           	psect	intsave_regs,global,class=BIGRAM,space=1,delta=1,noexec
    28                           	psect	rparam,global,class=COMRAM,space=1,delta=1,noexec
    29                           	psect	idloc,global,abs,ovrld,class=IDLOC,space=5,delta=1,noexec
    30                           	psect	config,global,abs,ovrld,class=CONFIG,space=4,delta=1,noexec
    31  0000                     
    32                           ; Version 2.35
    33                           ; Generated 04/06/2021 GMT
    34                           ; 
    35                           ; Copyright © 2021, Microchip Technology Inc. and its subsidiaries ("Microchip")
    36                           ; All rights reserved.
    37                           ; 
    38                           ; This software is developed by Microchip Technology Inc. and its subsidiaries ("Microch
      +                          ip").
    39                           ; 
    40                           ; Redistribution and use in source and binary forms, with or without modification, are
    41                           ; permitted provided that the following conditions are met:
    42                           ; 
    43                           ;     1. Redistributions of source code must retain the above copyright notice, this lis
      +                          t of
    44                           ;        conditions and the following disclaimer.
    45                           ; 
    46                           ;     2. Redistributions in binary form must reproduce the above copyright notice, this 
      +                          list
    47                           ;        of conditions and the following disclaimer in the documentation and/or other
    48                           ;        materials provided with the distribution. Publication is not required when
    49                           ;        this file is used in an embedded application.
    50                           ; 
    51                           ;     3. Microchip's name may not be used to endorse or promote products derived from th
      +                          is
    52                           ;        software without specific prior written permission.
    53                           ; 
    54                           ; THIS SOFTWARE IS PROVIDED BY MICROCHIP "AS IS" AND ANY EXPRESS OR IMPLIED WARRANTIES,
    55                           ; INCLUDING, BUT NOT LIMITED TO, THE IMPLIED WARRANTIES OF MERCHANTABILITY AND FITNESS F
      +                          OR
    56                           ; PURPOSE ARE DISCLAIMED.  IN NO EVENT SHALL MICROCHIP BE LIABLE FOR ANY DIRECT, INDIREC
      +                          T,
    57                           ; INCIDENTAL, SPECIAL, EXEMPLARY, OR CONSEQUENTIAL DAMAGES (INCLUDING BUT NOT LIMITED TO
    58                           ; PROCUREMENT OF SUBSTITUTE GOODS OR SERVICES; LOSS OF USE, DATA OR PROFITS; OR BUSINESS
    59                           ; INTERRUPTION) HOWSOEVER CAUSED AND ON ANY THEORY OF LIABILITY, WHETHER IN CONTRACT, ST
      +                          RICT
    60                           ; LIABILITY, OR TORT (INCLUDING NEGLIGENCE OR OTHERWISE) ARISING IN ANY WAY OUT OF THE U
      +                          SE OF
    61                           ; THIS SOFTWARE, EVEN IF ADVISED OF THE POSSIBILITY OF SUCH DAMAGE.
    62                           ; 
    63                           ; 
    64                           ; Code-generator required, PIC18F47Q10 Definitions
    65                           ; 
    66                           ; SFR Addresses
    67  0000                     _PIR3bits	set	3784
    68  0000                     _RB2PPS	set	3820
    69  0000                     _SSP1DATPPS	set	3763
    70  0000                     _RB1PPS	set	3819
    71  0000                     _SSP1CLKPPS	set	3762
    72  0000                     _OSCFRQbits	set	3801
    73  0000                     _OSCCON1bits	set	3795
    74  0000                     _ODCONBbits	set	3858
    75  0000                     _WPUBbits	set	3859
    76  0000                     _ANSELBbits	set	3860
    77  0000                     _SSP1BUF	set	3985
    78  0000                     _SSP1CON2bits	set	3990
    79  0000                     _SSP1ADD	set	3986
    80  0000                     _SSP1CON1bits	set	3989
    81                           
    82                           ; #config settings
    83                           
    84                           	psect	cinit
    85  01F83E                     __pcinit:
    86                           	callstack 0
    87  01F83E                     start_initialization:
    88                           	callstack 0
    89  01F83E                     __initialization:
    90                           	callstack 0
    91  01F83E                     end_of_initialization:
    92                           	callstack 0
    93  01F83E                     __end_of__initialization:
    94                           	callstack 0
    95  01F83E  0100               	movlb	0
    96  01F840  EFB0  F0FC         	goto	_main	;jump to C main() function
    97                           
    98                           	psect	cstackCOMRAM
    99  000001                     __pcstackCOMRAM:
   100                           	callstack 0
   101  000001                     ?___xxtofl:
   102                           	callstack 0
   103  000001                     I2C1_sendData@byte:
   104                           	callstack 0
   105  000001                     I2C1_readData@data:
   106                           	callstack 0
   107  000001                     ___xxtofl@val:
   108                           	callstack 0
   109                           
   110                           ; 4 bytes @ 0x0
   111  000001                     	ds	1
   112  000002                     ?_I2C1_read2ByteRegister:
   113                           	callstack 0
   114  000002                     I2C1_write1ByteRegister@reg:
   115                           	callstack 0
   116  000002                     I2C1_read2ByteRegister@reg:
   117                           	callstack 0
   118                           
   119                           ; 1 bytes @ 0x1
   120  000002                     	ds	1
   121  000003                     I2C1_write1ByteRegister@data:
   122                           	callstack 0
   123                           
   124                           ; 1 bytes @ 0x2
   125  000003                     	ds	1
   126  000004                     ??_I2C1_read2ByteRegister:
   127  000004                     I2C1_write1ByteRegister@address:
   128                           	callstack 0
   129                           
   130                           ; 1 bytes @ 0x3
   131  000004                     	ds	1
   132  000005                     ??___xxtofl:
   133  000005                     I2C1_write1ByteRegister@writeAddress:
   134                           	callstack 0
   135                           
   136                           ; 1 bytes @ 0x4
   137  000005                     	ds	1
   138  000006                     I2C1_read2ByteRegister@writeAddress:
   139                           	callstack 0
   140                           
   141                           ; 1 bytes @ 0x5
   142  000006                     	ds	1
   143  000007                     I2C1_read2ByteRegister@readAddress:
   144                           	callstack 0
   145                           
   146                           ; 1 bytes @ 0x6
   147  000007                     	ds	1
   148  000008                     I2C1_read2ByteRegister@dataRead:
   149                           	callstack 0
   150                           
   151                           ; 2 bytes @ 0x7
   152  000008                     	ds	1
   153  000009                     ___xxtofl@sign:
   154                           	callstack 0
   155                           
   156                           ; 1 bytes @ 0x8
   157  000009                     	ds	1
   158  00000A                     I2C1_read2ByteRegister@address:
   159                           	callstack 0
   160  00000A                     ___xxtofl@exp:
   161                           	callstack 0
   162                           
   163                           ; 1 bytes @ 0x9
   164  00000A                     	ds	1
   165  00000B                     ___xxtofl@arg:
   166                           	callstack 0
   167                           
   168                           ; 4 bytes @ 0xA
   169  00000B                     	ds	4
   170  00000F                     ?___fldiv:
   171                           	callstack 0
   172  00000F                     ___fldiv@b:
   173                           	callstack 0
   174                           
   175                           ; 4 bytes @ 0xE
   176  00000F                     	ds	4
   177  000013                     ___fldiv@a:
   178                           	callstack 0
   179                           
   180                           ; 4 bytes @ 0x12
   181  000013                     	ds	4
   182  000017                     ??___fldiv:
   183                           
   184                           ; 1 bytes @ 0x16
   185  000017                     	ds	4
   186  00001B                     ___fldiv@rem:
   187                           	callstack 0
   188                           
   189                           ; 4 bytes @ 0x1A
   190  00001B                     	ds	4
   191  00001F                     ___fldiv@sign:
   192                           	callstack 0
   193                           
   194                           ; 1 bytes @ 0x1E
   195  00001F                     	ds	1
   196  000020                     ___fldiv@new_exp:
   197                           	callstack 0
   198                           
   199                           ; 2 bytes @ 0x1F
   200  000020                     	ds	2
   201  000022                     ___fldiv@grs:
   202                           	callstack 0
   203                           
   204                           ; 4 bytes @ 0x21
   205  000022                     	ds	4
   206  000026                     ___fldiv@bexp:
   207                           	callstack 0
   208                           
   209                           ; 1 bytes @ 0x25
   210  000026                     	ds	1
   211  000027                     ___fldiv@aexp:
   212                           	callstack 0
   213                           
   214                           ; 1 bytes @ 0x26
   215  000027                     	ds	1
   216  000028                     ??_main:
   217                           
   218                           ; 1 bytes @ 0x27
   219  000028                     	ds	7
   220  00002F                     main@rawTempValue:
   221                           	callstack 0
   222                           
   223                           ; 2 bytes @ 0x2E
   224  00002F                     	ds	2
   225                           
   226 ;;
   227 ;;Main: autosize = 0, tempsize = 3, incstack = 0, save=0
   228 ;;
   229 ;; *************** function _main *****************
   230 ;; Defined at:
   231 ;;		line 271 in file "main.c"
   232 ;; Parameters:    Size  Location     Type
   233 ;;		None
   234 ;; Auto vars:     Size  Location     Type
   235 ;;  tempCelcius     4    0        float 
   236 ;;  rawTempValue    2   46[COMRAM] unsigned short 
   237 ;; Return value:  Size  Location     Type
   238 ;;                  1    wreg      void 
   239 ;; Registers used:
   240 ;;		wreg, status,2, status,0, cstack
   241 ;; Tracked objects:
   242 ;;		On entry : 0/0
   243 ;;		On exit  : 0/0
   244 ;;		Unchanged: 0/0
   245 ;; Data sizes:     COMRAM   BANK0   BANK1   BANK2   BANK3   BANK4   BANK5   BANK6   BANK7   BANK8   BANK9  BANK10  BANK1
      +1  BANK12  BANK13  BANK14
   246 ;;      Params:         0       0       0       0       0       0       0       0       0       0       0       0       
      +0       0       0       0
   247 ;;      Locals:         6       0       0       0       0       0       0       0       0       0       0       0       
      +0       0       0       0
   248 ;;      Temps:          3       0       0       0       0       0       0       0       0       0       0       0       
      +0       0       0       0
   249 ;;      Totals:         9       0       0       0       0       0       0       0       0       0       0       0       
      +0       0       0       0
   250 ;;Total ram usage:        9 bytes
   251 ;; Hardware stack levels required when called:    3
   252 ;; This function calls:
   253 ;;		_CLK_Initialize
   254 ;;		_I2C1_Initialize
   255 ;;		_I2C1_read2ByteRegister
   256 ;;		_I2C1_write1ByteRegister
   257 ;;		_PORT_Initialize
   258 ;;		_PPS_Initialize
   259 ;;		___fldiv
   260 ;;		___xxtofl
   261 ;; This function is called by:
   262 ;;		Startup code after reset
   263 ;; This function uses a non-reentrant model
   264 ;;
   265                           
   266                           	psect	text0
   267  01F960                     __ptext0:
   268                           	callstack 0
   269  01F960                     _main:
   270                           	callstack 28
   271  01F960                     
   272                           ;main.c: 273:     CLK_Initialize();
   273  01F960  EC48  F0FC         	call	_CLK_Initialize	;wreg free
   274                           
   275                           ;main.c: 274:     PPS_Initialize();
   276  01F964  EC6B  F0FC         	call	_PPS_Initialize	;wreg free
   277  01F968                     
   278                           ;main.c: 275:     PORT_Initialize();
   279  01F968  EC4F  F0FC         	call	_PORT_Initialize	;wreg free
   280  01F96C                     
   281                           ;main.c: 276:     I2C1_Initialize();
   282  01F96C  EC22  F0FC         	call	_I2C1_Initialize	;wreg free
   283  01F970                     
   284                           ;main.c: 278:     uint16_t rawTempValue;;main.c: 279:     float tempCelcius;;main.c: 282
      +                          :     I2C1_write1ByteRegister(0x49, 0x01, 0x60);
   285  01F970  0E01               	movlw	1
   286  01F972  6E02               	movwf	I2C1_write1ByteRegister@reg^0,c
   287  01F974  0E60               	movlw	96
   288  01F976  6E03               	movwf	I2C1_write1ByteRegister@data^0,c
   289  01F978  0E49               	movlw	73
   290  01F97A  EC75  F0FC         	call	_I2C1_write1ByteRegister
   291  01F97E                     l1348:
   292                           
   293                           ;main.c: 285:     {;main.c: 287:         rawTempValue = I2C1_read2ByteRegister(0x49, 0x0
      +                          0);
   294  01F97E  0E00               	movlw	0
   295  01F980  6E02               	movwf	I2C1_read2ByteRegister@reg^0,c
   296  01F982  0E49               	movlw	73
   297  01F984  ECFE  F0FC         	call	_I2C1_read2ByteRegister
   298  01F988  C002  F02F         	movff	?_I2C1_read2ByteRegister,main@rawTempValue
   299  01F98C  C003  F030         	movff	?_I2C1_read2ByteRegister+1,main@rawTempValue+1
   300  01F990  C02F  F028         	movff	main@rawTempValue,??_main
   301  01F994  C030  F029         	movff	main@rawTempValue+1,??_main+1
   302  01F998  0E04               	movlw	4
   303  01F99A  6E2A               	movwf	(??_main+2)^0,c
   304  01F99C                     u825:
   305  01F99C  90D8               	bcf	status,0,c
   306  01F99E  3229               	rrcf	(??_main+1)^0,f,c
   307  01F9A0  3228               	rrcf	??_main^0,f,c
   308  01F9A2  2E2A               	decfsz	(??_main+2)^0,f,c
   309  01F9A4  EFCE  F0FC         	goto	u825
   310  01F9A8  C028  F001         	movff	??_main,___xxtofl@val
   311  01F9AC  C029  F002         	movff	??_main+1,___xxtofl@val+1
   312  01F9B0  6A03               	clrf	(___xxtofl@val+2)^0,c
   313  01F9B2  6A04               	clrf	(___xxtofl@val+3)^0,c
   314  01F9B4  0E00               	movlw	0
   315  01F9B6  EC59  F0FD         	call	___xxtofl
   316  01F9BA  C001  F00F         	movff	?___xxtofl,___fldiv@b
   317  01F9BE  C002  F010         	movff	?___xxtofl+1,___fldiv@b+1
   318  01F9C2  C003  F011         	movff	?___xxtofl+2,___fldiv@b+2
   319  01F9C6  C004  F012         	movff	?___xxtofl+3,___fldiv@b+3
   320  01F9CA  0E00               	movlw	0
   321  01F9CC  6E13               	movwf	___fldiv@a^0,c
   322  01F9CE  0E00               	movlw	0
   323  01F9D0  6E14               	movwf	(___fldiv@a+1)^0,c
   324  01F9D2  0E80               	movlw	128
   325  01F9D4  6E15               	movwf	(___fldiv@a+2)^0,c
   326  01F9D6  0E41               	movlw	65
   327  01F9D8  6E16               	movwf	(___fldiv@a+3)^0,c
   328  01F9DA  EC33  F0FE         	call	___fldiv	;wreg free
   329  01F9DE                     
   330                           ;main.c: 291:         _delay((unsigned long)((500)*(4000000UL/4000.0)));
   331  01F9DE  0E03               	movlw	3
   332  01F9E0  6E29               	movwf	(??_main+1)^0,c
   333  01F9E2  0E8A               	movlw	138
   334  01F9E4  6E28               	movwf	??_main^0,c
   335  01F9E6  0E56               	movlw	86
   336  01F9E8                     u837:
   337  01F9E8  2EE8               	decfsz	wreg,f,c
   338  01F9EA  D7FE               	bra	u837
   339  01F9EC  2E28               	decfsz	??_main^0,f,c
   340  01F9EE  D7FC               	bra	u837
   341  01F9F0  2E29               	decfsz	(??_main+1)^0,f,c
   342  01F9F2  D7FA               	bra	u837
   343  01F9F4  EFBF  F0FC         	goto	l1348
   344  01F9F8  EF00  F000         	goto	start
   345  01F9FC                     __end_of_main:
   346                           	callstack 0
   347                           
   348 ;; *************** function ___xxtofl *****************
   349 ;; Defined at:
   350 ;;		line 10 in file "C:\Program Files\Microchip\xc8\v2.31\pic\sources\c99\common\xxtofl.c"
   351 ;; Parameters:    Size  Location     Type
   352 ;;  sign            1    wreg     unsigned char 
   353 ;;  val             4    0[COMRAM] long 
   354 ;; Auto vars:     Size  Location     Type
   355 ;;  sign            1    8[COMRAM] unsigned char 
   356 ;;  arg             4   10[COMRAM] unsigned long 
   357 ;;  exp             1    9[COMRAM] unsigned char 
   358 ;; Return value:  Size  Location     Type
   359 ;;                  4    0[COMRAM] unsigned char 
   360 ;; Registers used:
   361 ;;		wreg, status,2, status,0
   362 ;; Tracked objects:
   363 ;;		On entry : 0/0
   364 ;;		On exit  : 0/0
   365 ;;		Unchanged: 0/0
   366 ;; Data sizes:     COMRAM   BANK0   BANK1   BANK2   BANK3   BANK4   BANK5   BANK6   BANK7   BANK8   BANK9  BANK10  BANK1
      +1  BANK12  BANK13  BANK14
   367 ;;      Params:         4       0       0       0       0       0       0       0       0       0       0       0       
      +0       0       0       0
   368 ;;      Locals:         6       0       0       0       0       0       0       0       0       0       0       0       
      +0       0       0       0
   369 ;;      Temps:          4       0       0       0       0       0       0       0       0       0       0       0       
      +0       0       0       0
   370 ;;      Totals:        14       0       0       0       0       0       0       0       0       0       0       0       
      +0       0       0       0
   371 ;;Total ram usage:       14 bytes
   372 ;; Hardware stack levels used:    1
   373 ;; This function calls:
   374 ;;		Nothing
   375 ;; This function is called by:
   376 ;;		_main
   377 ;; This function uses a non-reentrant model
   378 ;;
   379                           
   380                           	psect	text1
   381  01FAB2                     __ptext1:
   382                           	callstack 0
   383  01FAB2                     ___xxtofl:
   384                           	callstack 30
   385                           
   386                           ;incstack = 0
   387                           ;___xxtofl@sign stored from wreg
   388  01FAB2  6E09               	movwf	___xxtofl@sign^0,c
   389  01FAB4  5009               	movf	___xxtofl@sign^0,w,c
   390  01FAB6  B4D8               	btfsc	status,2,c
   391  01FAB8  EF60  F0FD         	goto	u721
   392  01FABC  EF62  F0FD         	goto	u720
   393  01FAC0                     u721:
   394  01FAC0  EF84  F0FD         	goto	l756
   395  01FAC4                     u720:
   396  01FAC4  BE04               	btfsc	(___xxtofl@val+3)^0,7,c
   397  01FAC6  EF69  F0FD         	goto	u730
   398  01FACA  EF67  F0FD         	goto	u731
   399  01FACE                     u731:
   400  01FACE  EF84  F0FD         	goto	l756
   401  01FAD2                     u730:
   402  01FAD2  C001  F005         	movff	___xxtofl@val,??___xxtofl
   403  01FAD6  C002  F006         	movff	___xxtofl@val+1,??___xxtofl+1
   404  01FADA  C003  F007         	movff	___xxtofl@val+2,??___xxtofl+2
   405  01FADE  C004  F008         	movff	___xxtofl@val+3,??___xxtofl+3
   406  01FAE2  1E05               	comf	??___xxtofl^0,f,c
   407  01FAE4  1E06               	comf	(??___xxtofl+1)^0,f,c
   408  01FAE6  1E07               	comf	(??___xxtofl+2)^0,f,c
   409  01FAE8  1E08               	comf	(??___xxtofl+3)^0,f,c
   410  01FAEA  2A05               	incf	??___xxtofl^0,f,c
   411  01FAEC  0E00               	movlw	0
   412  01FAEE  2206               	addwfc	(??___xxtofl+1)^0,f,c
   413  01FAF0  2207               	addwfc	(??___xxtofl+2)^0,f,c
   414  01FAF2  2208               	addwfc	(??___xxtofl+3)^0,f,c
   415  01FAF4  C005  F00B         	movff	??___xxtofl,___xxtofl@arg
   416  01FAF8  C006  F00C         	movff	??___xxtofl+1,___xxtofl@arg+1
   417  01FAFC  C007  F00D         	movff	??___xxtofl+2,___xxtofl@arg+2
   418  01FB00  C008  F00E         	movff	??___xxtofl+3,___xxtofl@arg+3
   419  01FB04  EF8C  F0FD         	goto	l1300
   420  01FB08                     l756:
   421  01FB08  C001  F00B         	movff	___xxtofl@val,___xxtofl@arg
   422  01FB0C  C002  F00C         	movff	___xxtofl@val+1,___xxtofl@arg+1
   423  01FB10  C003  F00D         	movff	___xxtofl@val+2,___xxtofl@arg+2
   424  01FB14  C004  F00E         	movff	___xxtofl@val+3,___xxtofl@arg+3
   425  01FB18                     l1300:
   426  01FB18  5001               	movf	___xxtofl@val^0,w,c
   427  01FB1A  1002               	iorwf	(___xxtofl@val+1)^0,w,c
   428  01FB1C  1003               	iorwf	(___xxtofl@val+2)^0,w,c
   429  01FB1E  1004               	iorwf	(___xxtofl@val+3)^0,w,c
   430  01FB20  A4D8               	btfss	status,2,c
   431  01FB22  EF95  F0FD         	goto	u741
   432  01FB26  EF97  F0FD         	goto	u740
   433  01FB2A                     u741:
   434  01FB2A  EFA1  F0FD         	goto	l1306
   435  01FB2E                     u740:
   436  01FB2E  0E00               	movlw	0
   437  01FB30  6E01               	movwf	?___xxtofl^0,c
   438  01FB32  0E00               	movlw	0
   439  01FB34  6E02               	movwf	(?___xxtofl+1)^0,c
   440  01FB36  0E00               	movlw	0
   441  01FB38  6E03               	movwf	(?___xxtofl+2)^0,c
   442  01FB3A  0E00               	movlw	0
   443  01FB3C  6E04               	movwf	(?___xxtofl+3)^0,c
   444  01FB3E  EF32  F0FE         	goto	l759
   445  01FB42                     l1306:
   446  01FB42  0E96               	movlw	150
   447  01FB44  6E0A               	movwf	___xxtofl@exp^0,c
   448  01FB46  EFAB  F0FD         	goto	l1310
   449  01FB4A                     l1308:
   450  01FB4A  2A0A               	incf	___xxtofl@exp^0,f,c
   451  01FB4C  90D8               	bcf	status,0,c
   452  01FB4E  320E               	rrcf	(___xxtofl@arg+3)^0,f,c
   453  01FB50  320D               	rrcf	(___xxtofl@arg+2)^0,f,c
   454  01FB52  320C               	rrcf	(___xxtofl@arg+1)^0,f,c
   455  01FB54  320B               	rrcf	___xxtofl@arg^0,f,c
   456  01FB56                     l1310:
   457  01FB56  0E00               	movlw	0
   458  01FB58  140B               	andwf	___xxtofl@arg^0,w,c
   459  01FB5A  6E05               	movwf	??___xxtofl^0,c
   460  01FB5C  0E00               	movlw	0
   461  01FB5E  140C               	andwf	(___xxtofl@arg+1)^0,w,c
   462  01FB60  6E06               	movwf	(??___xxtofl+1)^0,c
   463  01FB62  0E00               	movlw	0
   464  01FB64  140D               	andwf	(___xxtofl@arg+2)^0,w,c
   465  01FB66  6E07               	movwf	(??___xxtofl+2)^0,c
   466  01FB68  0EFE               	movlw	254
   467  01FB6A  140E               	andwf	(___xxtofl@arg+3)^0,w,c
   468  01FB6C  6E08               	movwf	(??___xxtofl+3)^0,c
   469  01FB6E  5005               	movf	??___xxtofl^0,w,c
   470  01FB70  1006               	iorwf	(??___xxtofl+1)^0,w,c
   471  01FB72  1007               	iorwf	(??___xxtofl+2)^0,w,c
   472  01FB74  1008               	iorwf	(??___xxtofl+3)^0,w,c
   473  01FB76  A4D8               	btfss	status,2,c
   474  01FB78  EFC0  F0FD         	goto	u751
   475  01FB7C  EFC2  F0FD         	goto	u750
   476  01FB80                     u751:
   477  01FB80  EFA5  F0FD         	goto	l1308
   478  01FB84                     u750:
   479  01FB84  EFD0  F0FD         	goto	l763
   480  01FB88                     l1312:
   481  01FB88  2A0A               	incf	___xxtofl@exp^0,f,c
   482  01FB8A  0E01               	movlw	1
   483  01FB8C  260B               	addwf	___xxtofl@arg^0,f,c
   484  01FB8E  0E00               	movlw	0
   485  01FB90  220C               	addwfc	(___xxtofl@arg+1)^0,f,c
   486  01FB92  220D               	addwfc	(___xxtofl@arg+2)^0,f,c
   487  01FB94  220E               	addwfc	(___xxtofl@arg+3)^0,f,c
   488  01FB96  90D8               	bcf	status,0,c
   489  01FB98  320E               	rrcf	(___xxtofl@arg+3)^0,f,c
   490  01FB9A  320D               	rrcf	(___xxtofl@arg+2)^0,f,c
   491  01FB9C  320C               	rrcf	(___xxtofl@arg+1)^0,f,c
   492  01FB9E  320B               	rrcf	___xxtofl@arg^0,f,c
   493  01FBA0                     l763:
   494  01FBA0  0E00               	movlw	0
   495  01FBA2  140B               	andwf	___xxtofl@arg^0,w,c
   496  01FBA4  6E05               	movwf	??___xxtofl^0,c
   497  01FBA6  0E00               	movlw	0
   498  01FBA8  140C               	andwf	(___xxtofl@arg+1)^0,w,c
   499  01FBAA  6E06               	movwf	(??___xxtofl+1)^0,c
   500  01FBAC  0E00               	movlw	0
   501  01FBAE  140D               	andwf	(___xxtofl@arg+2)^0,w,c
   502  01FBB0  6E07               	movwf	(??___xxtofl+2)^0,c
   503  01FBB2  0EFF               	movlw	255
   504  01FBB4  140E               	andwf	(___xxtofl@arg+3)^0,w,c
   505  01FBB6  6E08               	movwf	(??___xxtofl+3)^0,c
   506  01FBB8  5005               	movf	??___xxtofl^0,w,c
   507  01FBBA  1006               	iorwf	(??___xxtofl+1)^0,w,c
   508  01FBBC  1007               	iorwf	(??___xxtofl+2)^0,w,c
   509  01FBBE  1008               	iorwf	(??___xxtofl+3)^0,w,c
   510  01FBC0  A4D8               	btfss	status,2,c
   511  01FBC2  EFE5  F0FD         	goto	u761
   512  01FBC6  EFE7  F0FD         	goto	u760
   513  01FBCA                     u761:
   514  01FBCA  EFC4  F0FD         	goto	l1312
   515  01FBCE                     u760:
   516  01FBCE  EFEF  F0FD         	goto	l1320
   517  01FBD2                     l1318:
   518  01FBD2  060A               	decf	___xxtofl@exp^0,f,c
   519  01FBD4  90D8               	bcf	status,0,c
   520  01FBD6  360B               	rlcf	___xxtofl@arg^0,f,c
   521  01FBD8  360C               	rlcf	(___xxtofl@arg+1)^0,f,c
   522  01FBDA  360D               	rlcf	(___xxtofl@arg+2)^0,f,c
   523  01FBDC  360E               	rlcf	(___xxtofl@arg+3)^0,f,c
   524  01FBDE                     l1320:
   525  01FBDE  BE0D               	btfsc	(___xxtofl@arg+2)^0,7,c
   526  01FBE0  EFF4  F0FD         	goto	u771
   527  01FBE4  EFF6  F0FD         	goto	u770
   528  01FBE8                     u771:
   529  01FBE8  EFFE  F0FD         	goto	l770
   530  01FBEC                     u770:
   531  01FBEC  0E02               	movlw	2
   532  01FBEE  600A               	cpfslt	___xxtofl@exp^0,c
   533  01FBF0  EFFC  F0FD         	goto	u781
   534  01FBF4  EFFE  F0FD         	goto	u780
   535  01FBF8                     u781:
   536  01FBF8  EFE9  F0FD         	goto	l1318
   537  01FBFC                     u780:
   538  01FBFC                     l770:
   539  01FBFC  B00A               	btfsc	___xxtofl@exp^0,0,c
   540  01FBFE  EF03  F0FE         	goto	u791
   541  01FC02  EF05  F0FE         	goto	u790
   542  01FC06                     u791:
   543  01FC06  EF06  F0FE         	goto	l1326
   544  01FC0A                     u790:
   545  01FC0A  9E0D               	bcf	(___xxtofl@arg+2)^0,7,c
   546  01FC0C                     l1326:
   547  01FC0C  90D8               	bcf	status,0,c
   548  01FC0E  320A               	rrcf	___xxtofl@exp^0,f,c
   549  01FC10  C00A  F005         	movff	___xxtofl@exp,??___xxtofl
   550  01FC14  6A06               	clrf	(??___xxtofl+1)^0,c
   551  01FC16  6A07               	clrf	(??___xxtofl+2)^0,c
   552  01FC18  6A08               	clrf	(??___xxtofl+3)^0,c
   553  01FC1A  C005  F008         	movff	??___xxtofl,??___xxtofl+3
   554  01FC1E  6A07               	clrf	(??___xxtofl+2)^0,c
   555  01FC20  6A06               	clrf	(??___xxtofl+1)^0,c
   556  01FC22  6A05               	clrf	??___xxtofl^0,c
   557  01FC24  5005               	movf	??___xxtofl^0,w,c
   558  01FC26  120B               	iorwf	___xxtofl@arg^0,f,c
   559  01FC28  5006               	movf	(??___xxtofl+1)^0,w,c
   560  01FC2A  120C               	iorwf	(___xxtofl@arg+1)^0,f,c
   561  01FC2C  5007               	movf	(??___xxtofl+2)^0,w,c
   562  01FC2E  120D               	iorwf	(___xxtofl@arg+2)^0,f,c
   563  01FC30  5008               	movf	(??___xxtofl+3)^0,w,c
   564  01FC32  120E               	iorwf	(___xxtofl@arg+3)^0,f,c
   565  01FC34  5009               	movf	___xxtofl@sign^0,w,c
   566  01FC36  B4D8               	btfsc	status,2,c
   567  01FC38  EF20  F0FE         	goto	u801
   568  01FC3C  EF22  F0FE         	goto	u800
   569  01FC40                     u801:
   570  01FC40  EF2A  F0FE         	goto	l1336
   571  01FC44                     u800:
   572  01FC44  BE04               	btfsc	(___xxtofl@val+3)^0,7,c
   573  01FC46  EF29  F0FE         	goto	u810
   574  01FC4A  EF27  F0FE         	goto	u811
   575  01FC4E                     u811:
   576  01FC4E  EF2A  F0FE         	goto	l1336
   577  01FC52                     u810:
   578  01FC52  8E0E               	bsf	(___xxtofl@arg+3)^0,7,c
   579  01FC54                     l1336:
   580  01FC54  C00B  F001         	movff	___xxtofl@arg,?___xxtofl
   581  01FC58  C00C  F002         	movff	___xxtofl@arg+1,?___xxtofl+1
   582  01FC5C  C00D  F003         	movff	___xxtofl@arg+2,?___xxtofl+2
   583  01FC60  C00E  F004         	movff	___xxtofl@arg+3,?___xxtofl+3
   584  01FC64                     l759:
   585  01FC64  0012               	return		;funcret
   586  01FC66                     __end_of___xxtofl:
   587                           	callstack 0
   588                           
   589 ;; *************** function ___fldiv *****************
   590 ;; Defined at:
   591 ;;		line 11 in file "C:\Program Files\Microchip\xc8\v2.31\pic\sources\c99\common\sprcdiv.c"
   592 ;; Parameters:    Size  Location     Type
   593 ;;  b               4   14[COMRAM] unsigned char 
   594 ;;  a               4   18[COMRAM] unsigned char 
   595 ;; Auto vars:     Size  Location     Type
   596 ;;  grs             4   33[COMRAM] unsigned long 
   597 ;;  rem             4   26[COMRAM] unsigned long 
   598 ;;  new_exp         2   31[COMRAM] short 
   599 ;;  aexp            1   38[COMRAM] unsigned char 
   600 ;;  bexp            1   37[COMRAM] unsigned char 
   601 ;;  sign            1   30[COMRAM] unsigned char 
   602 ;; Return value:  Size  Location     Type
   603 ;;                  4   14[COMRAM] unsigned char 
   604 ;; Registers used:
   605 ;;		wreg, status,2, status,0
   606 ;; Tracked objects:
   607 ;;		On entry : 0/0
   608 ;;		On exit  : 0/0
   609 ;;		Unchanged: 0/0
   610 ;; Data sizes:     COMRAM   BANK0   BANK1   BANK2   BANK3   BANK4   BANK5   BANK6   BANK7   BANK8   BANK9  BANK10  BANK1
      +1  BANK12  BANK13  BANK14
   611 ;;      Params:         8       0       0       0       0       0       0       0       0       0       0       0       
      +0       0       0       0
   612 ;;      Locals:        13       0       0       0       0       0       0       0       0       0       0       0       
      +0       0       0       0
   613 ;;      Temps:          4       0       0       0       0       0       0       0       0       0       0       0       
      +0       0       0       0
   614 ;;      Totals:        25       0       0       0       0       0       0       0       0       0       0       0       
      +0       0       0       0
   615 ;;Total ram usage:       25 bytes
   616 ;; Hardware stack levels used:    1
   617 ;; This function calls:
   618 ;;		Nothing
   619 ;; This function is called by:
   620 ;;		_main
   621 ;; This function uses a non-reentrant model
   622 ;;
   623                           
   624                           	psect	text2
   625  01FC66                     __ptext2:
   626                           	callstack 0
   627  01FC66                     ___fldiv:
   628                           	callstack 30
   629  01FC66  5012               	movf	(___fldiv@b+3)^0,w,c
   630  01FC68  0B80               	andlw	128
   631  01FC6A  6E1F               	movwf	___fldiv@sign^0,c
   632  01FC6C  5012               	movf	(___fldiv@b+3)^0,w,c
   633  01FC6E  2412               	addwf	(___fldiv@b+3)^0,w,c
   634  01FC70  6E26               	movwf	___fldiv@bexp^0,c
   635  01FC72  AE11               	btfss	(___fldiv@b+2)^0,7,c
   636  01FC74  EF3E  F0FE         	goto	u491
   637  01FC78  EF40  F0FE         	goto	u490
   638  01FC7C                     u491:
   639  01FC7C  EF41  F0FE         	goto	l1162
   640  01FC80                     u490:
   641  01FC80  8026               	bsf	___fldiv@bexp^0,0,c
   642  01FC82                     l1162:
   643  01FC82  5026               	movf	___fldiv@bexp^0,w,c
   644  01FC84  B4D8               	btfsc	status,2,c
   645  01FC86  EF47  F0FE         	goto	u501
   646  01FC8A  EF49  F0FE         	goto	u500
   647  01FC8E                     u501:
   648  01FC8E  EF5E  F0FE         	goto	l1172
   649  01FC92                     u500:
   650  01FC92  2826               	incf	___fldiv@bexp^0,w,c
   651  01FC94  A4D8               	btfss	status,2,c
   652  01FC96  EF4F  F0FE         	goto	u511
   653  01FC9A  EF51  F0FE         	goto	u510
   654  01FC9E                     u511:
   655  01FC9E  EF59  F0FE         	goto	l1168
   656  01FCA2                     u510:
   657  01FCA2  0E00               	movlw	0
   658  01FCA4  6E0F               	movwf	___fldiv@b^0,c
   659  01FCA6  0E00               	movlw	0
   660  01FCA8  6E10               	movwf	(___fldiv@b+1)^0,c
   661  01FCAA  0E00               	movlw	0
   662  01FCAC  6E11               	movwf	(___fldiv@b+2)^0,c
   663  01FCAE  0E00               	movlw	0
   664  01FCB0  6E12               	movwf	(___fldiv@b+3)^0,c
   665  01FCB2                     l1168:
   666  01FCB2  8E11               	bsf	(___fldiv@b+2)^0,7,c
   667  01FCB4  0E00               	movlw	0
   668  01FCB6  6E12               	movwf	(___fldiv@b+3)^0,c
   669  01FCB8  EF66  F0FE         	goto	l1174
   670  01FCBC                     l1172:
   671  01FCBC  0E00               	movlw	0
   672  01FCBE  6E0F               	movwf	___fldiv@b^0,c
   673  01FCC0  0E00               	movlw	0
   674  01FCC2  6E10               	movwf	(___fldiv@b+1)^0,c
   675  01FCC4  0E00               	movlw	0
   676  01FCC6  6E11               	movwf	(___fldiv@b+2)^0,c
   677  01FCC8  0E00               	movlw	0
   678  01FCCA  6E12               	movwf	(___fldiv@b+3)^0,c
   679  01FCCC                     l1174:
   680  01FCCC  5016               	movf	(___fldiv@a+3)^0,w,c
   681  01FCCE  0B80               	andlw	128
   682  01FCD0  1A1F               	xorwf	___fldiv@sign^0,f,c
   683  01FCD2  5016               	movf	(___fldiv@a+3)^0,w,c
   684  01FCD4  2416               	addwf	(___fldiv@a+3)^0,w,c
   685  01FCD6  6E27               	movwf	___fldiv@aexp^0,c
   686  01FCD8  AE15               	btfss	(___fldiv@a+2)^0,7,c
   687  01FCDA  EF71  F0FE         	goto	u521
   688  01FCDE  EF73  F0FE         	goto	u520
   689  01FCE2                     u521:
   690  01FCE2  EF74  F0FE         	goto	l1182
   691  01FCE6                     u520:
   692  01FCE6  8027               	bsf	___fldiv@aexp^0,0,c
   693  01FCE8                     l1182:
   694  01FCE8  5027               	movf	___fldiv@aexp^0,w,c
   695  01FCEA  B4D8               	btfsc	status,2,c
   696  01FCEC  EF7A  F0FE         	goto	u531
   697  01FCF0  EF7C  F0FE         	goto	u530
   698  01FCF4                     u531:
   699  01FCF4  EF91  F0FE         	goto	l1192
   700  01FCF8                     u530:
   701  01FCF8  2827               	incf	___fldiv@aexp^0,w,c
   702  01FCFA  A4D8               	btfss	status,2,c
   703  01FCFC  EF82  F0FE         	goto	u541
   704  01FD00  EF84  F0FE         	goto	u540
   705  01FD04                     u541:
   706  01FD04  EF8C  F0FE         	goto	l1188
   707  01FD08                     u540:
   708  01FD08  0E00               	movlw	0
   709  01FD0A  6E13               	movwf	___fldiv@a^0,c
   710  01FD0C  0E00               	movlw	0
   711  01FD0E  6E14               	movwf	(___fldiv@a+1)^0,c
   712  01FD10  0E00               	movlw	0
   713  01FD12  6E15               	movwf	(___fldiv@a+2)^0,c
   714  01FD14  0E00               	movlw	0
   715  01FD16  6E16               	movwf	(___fldiv@a+3)^0,c
   716  01FD18                     l1188:
   717  01FD18  8E15               	bsf	(___fldiv@a+2)^0,7,c
   718  01FD1A  0E00               	movlw	0
   719  01FD1C  6E16               	movwf	(___fldiv@a+3)^0,c
   720  01FD1E  EF99  F0FE         	goto	l1194
   721  01FD22                     l1192:
   722  01FD22  0E00               	movlw	0
   723  01FD24  6E13               	movwf	___fldiv@a^0,c
   724  01FD26  0E00               	movlw	0
   725  01FD28  6E14               	movwf	(___fldiv@a+1)^0,c
   726  01FD2A  0E00               	movlw	0
   727  01FD2C  6E15               	movwf	(___fldiv@a+2)^0,c
   728  01FD2E  0E00               	movlw	0
   729  01FD30  6E16               	movwf	(___fldiv@a+3)^0,c
   730  01FD32                     l1194:
   731  01FD32  5013               	movf	___fldiv@a^0,w,c
   732  01FD34  1014               	iorwf	(___fldiv@a+1)^0,w,c
   733  01FD36  1015               	iorwf	(___fldiv@a+2)^0,w,c
   734  01FD38  1016               	iorwf	(___fldiv@a+3)^0,w,c
   735  01FD3A  A4D8               	btfss	status,2,c
   736  01FD3C  EFA2  F0FE         	goto	u551
   737  01FD40  EFA4  F0FE         	goto	u550
   738  01FD44                     u551:
   739  01FD44  EFBC  F0FE         	goto	l1206
   740  01FD48                     u550:
   741  01FD48  0E00               	movlw	0
   742  01FD4A  6E0F               	movwf	___fldiv@b^0,c
   743  01FD4C  0E00               	movlw	0
   744  01FD4E  6E10               	movwf	(___fldiv@b+1)^0,c
   745  01FD50  0E00               	movlw	0
   746  01FD52  6E11               	movwf	(___fldiv@b+2)^0,c
   747  01FD54  0E00               	movlw	0
   748  01FD56  6E12               	movwf	(___fldiv@b+3)^0,c
   749  01FD58  0E80               	movlw	128
   750  01FD5A  1211               	iorwf	(___fldiv@b+2)^0,f,c
   751  01FD5C  0E7F               	movlw	127
   752  01FD5E  1212               	iorwf	(___fldiv@b+3)^0,f,c
   753  01FD60                     l1200:
   754  01FD60  501F               	movf	___fldiv@sign^0,w,c
   755  01FD62  1212               	iorwf	(___fldiv@b+3)^0,f,c
   756  01FD64  C00F  F00F         	movff	___fldiv@b,?___fldiv
   757  01FD68  C010  F010         	movff	___fldiv@b+1,?___fldiv+1
   758  01FD6C  C011  F011         	movff	___fldiv@b+2,?___fldiv+2
   759  01FD70  C012  F012         	movff	___fldiv@b+3,?___fldiv+3
   760  01FD74  EFFF  F0FF         	goto	l683
   761  01FD78                     l1206:
   762  01FD78  5026               	movf	___fldiv@bexp^0,w,c
   763  01FD7A  A4D8               	btfss	status,2,c
   764  01FD7C  EFC2  F0FE         	goto	u561
   765  01FD80  EFC4  F0FE         	goto	u560
   766  01FD84                     u561:
   767  01FD84  EFCE  F0FE         	goto	l1214
   768  01FD88                     u560:
   769  01FD88  0E00               	movlw	0
   770  01FD8A  6E0F               	movwf	?___fldiv^0,c
   771  01FD8C  0E00               	movlw	0
   772  01FD8E  6E10               	movwf	(?___fldiv+1)^0,c
   773  01FD90  0E00               	movlw	0
   774  01FD92  6E11               	movwf	(?___fldiv+2)^0,c
   775  01FD94  0E00               	movlw	0
   776  01FD96  6E12               	movwf	(?___fldiv+3)^0,c
   777  01FD98  EFFF  F0FF         	goto	l683
   778  01FD9C                     l1214:
   779  01FD9C  5027               	movf	___fldiv@aexp^0,w,c
   780  01FD9E  C026  F017         	movff	___fldiv@bexp,??___fldiv
   781  01FDA2  6A18               	clrf	(??___fldiv+1)^0,c
   782  01FDA4  5E17               	subwf	??___fldiv^0,f,c
   783  01FDA6  0E00               	movlw	0
   784  01FDA8  5A18               	subwfb	(??___fldiv+1)^0,f,c
   785  01FDAA  0E7F               	movlw	127
   786  01FDAC  2417               	addwf	??___fldiv^0,w,c
   787  01FDAE  6E20               	movwf	___fldiv@new_exp^0,c
   788  01FDB0  0E00               	movlw	0
   789  01FDB2  2018               	addwfc	(??___fldiv+1)^0,w,c
   790  01FDB4  6E21               	movwf	(___fldiv@new_exp+1)^0,c
   791  01FDB6  C00F  F01B         	movff	___fldiv@b,___fldiv@rem
   792  01FDBA  C010  F01C         	movff	___fldiv@b+1,___fldiv@rem+1
   793  01FDBE  C011  F01D         	movff	___fldiv@b+2,___fldiv@rem+2
   794  01FDC2  C012  F01E         	movff	___fldiv@b+3,___fldiv@rem+3
   795  01FDC6  0E00               	movlw	0
   796  01FDC8  6E0F               	movwf	___fldiv@b^0,c
   797  01FDCA  0E00               	movlw	0
   798  01FDCC  6E10               	movwf	(___fldiv@b+1)^0,c
   799  01FDCE  0E00               	movlw	0
   800  01FDD0  6E11               	movwf	(___fldiv@b+2)^0,c
   801  01FDD2  0E00               	movlw	0
   802  01FDD4  6E12               	movwf	(___fldiv@b+3)^0,c
   803  01FDD6  0E00               	movlw	0
   804  01FDD8  6E22               	movwf	___fldiv@grs^0,c
   805  01FDDA  0E00               	movlw	0
   806  01FDDC  6E23               	movwf	(___fldiv@grs+1)^0,c
   807  01FDDE  0E00               	movlw	0
   808  01FDE0  6E24               	movwf	(___fldiv@grs+2)^0,c
   809  01FDE2  0E00               	movlw	0
   810  01FDE4  6E25               	movwf	(___fldiv@grs+3)^0,c
   811  01FDE6  0E00               	movlw	0
   812  01FDE8  6E27               	movwf	___fldiv@aexp^0,c
   813  01FDEA  EF2F  F0FF         	goto	l685
   814  01FDEE                     l1224:
   815  01FDEE  5027               	movf	___fldiv@aexp^0,w,c
   816  01FDF0  B4D8               	btfsc	status,2,c
   817  01FDF2  EFFD  F0FE         	goto	u571
   818  01FDF6  EFFF  F0FE         	goto	u570
   819  01FDFA                     u571:
   820  01FDFA  EF16  F0FF         	goto	l1232
   821  01FDFE                     u570:
   822  01FDFE  90D8               	bcf	status,0,c
   823  01FE00  361B               	rlcf	___fldiv@rem^0,f,c
   824  01FE02  361C               	rlcf	(___fldiv@rem+1)^0,f,c
   825  01FE04  361D               	rlcf	(___fldiv@rem+2)^0,f,c
   826  01FE06  361E               	rlcf	(___fldiv@rem+3)^0,f,c
   827  01FE08  90D8               	bcf	status,0,c
   828  01FE0A  360F               	rlcf	___fldiv@b^0,f,c
   829  01FE0C  3610               	rlcf	(___fldiv@b+1)^0,f,c
   830  01FE0E  3611               	rlcf	(___fldiv@b+2)^0,f,c
   831  01FE10  3612               	rlcf	(___fldiv@b+3)^0,f,c
   832  01FE12  AE25               	btfss	(___fldiv@grs+3)^0,7,c
   833  01FE14  EF0E  F0FF         	goto	u581
   834  01FE18  EF10  F0FF         	goto	u580
   835  01FE1C                     u581:
   836  01FE1C  EF11  F0FF         	goto	l688
   837  01FE20                     u580:
   838  01FE20  800F               	bsf	___fldiv@b^0,0,c
   839  01FE22                     l688:
   840  01FE22  90D8               	bcf	status,0,c
   841  01FE24  3622               	rlcf	___fldiv@grs^0,f,c
   842  01FE26  3623               	rlcf	(___fldiv@grs+1)^0,f,c
   843  01FE28  3624               	rlcf	(___fldiv@grs+2)^0,f,c
   844  01FE2A  3625               	rlcf	(___fldiv@grs+3)^0,f,c
   845  01FE2C                     l1232:
   846  01FE2C  5013               	movf	___fldiv@a^0,w,c
   847  01FE2E  5C1B               	subwf	___fldiv@rem^0,w,c
   848  01FE30  5014               	movf	(___fldiv@a+1)^0,w,c
   849  01FE32  581C               	subwfb	(___fldiv@rem+1)^0,w,c
   850  01FE34  5015               	movf	(___fldiv@a+2)^0,w,c
   851  01FE36  581D               	subwfb	(___fldiv@rem+2)^0,w,c
   852  01FE38  5016               	movf	(___fldiv@a+3)^0,w,c
   853  01FE3A  581E               	subwfb	(___fldiv@rem+3)^0,w,c
   854  01FE3C  A0D8               	btfss	status,0,c
   855  01FE3E  EF23  F0FF         	goto	u591
   856  01FE42  EF25  F0FF         	goto	u590
   857  01FE46                     u591:
   858  01FE46  EF2E  F0FF         	goto	l1238
   859  01FE4A                     u590:
   860  01FE4A  8C25               	bsf	(___fldiv@grs+3)^0,6,c
   861  01FE4C  5013               	movf	___fldiv@a^0,w,c
   862  01FE4E  5E1B               	subwf	___fldiv@rem^0,f,c
   863  01FE50  5014               	movf	(___fldiv@a+1)^0,w,c
   864  01FE52  5A1C               	subwfb	(___fldiv@rem+1)^0,f,c
   865  01FE54  5015               	movf	(___fldiv@a+2)^0,w,c
   866  01FE56  5A1D               	subwfb	(___fldiv@rem+2)^0,f,c
   867  01FE58  5016               	movf	(___fldiv@a+3)^0,w,c
   868  01FE5A  5A1E               	subwfb	(___fldiv@rem+3)^0,f,c
   869  01FE5C                     l1238:
   870  01FE5C  2A27               	incf	___fldiv@aexp^0,f,c
   871  01FE5E                     l685:
   872  01FE5E  0E19               	movlw	25
   873  01FE60  6427               	cpfsgt	___fldiv@aexp^0,c
   874  01FE62  EF35  F0FF         	goto	u601
   875  01FE66  EF37  F0FF         	goto	u600
   876  01FE6A                     u601:
   877  01FE6A  EFF7  F0FE         	goto	l1224
   878  01FE6E                     u600:
   879  01FE6E  501B               	movf	___fldiv@rem^0,w,c
   880  01FE70  101C               	iorwf	(___fldiv@rem+1)^0,w,c
   881  01FE72  101D               	iorwf	(___fldiv@rem+2)^0,w,c
   882  01FE74  101E               	iorwf	(___fldiv@rem+3)^0,w,c
   883  01FE76  B4D8               	btfsc	status,2,c
   884  01FE78  EF40  F0FF         	goto	u611
   885  01FE7C  EF42  F0FF         	goto	u610
   886  01FE80                     u611:
   887  01FE80  EF5A  F0FF         	goto	l1250
   888  01FE84                     u610:
   889  01FE84  8022               	bsf	___fldiv@grs^0,0,c
   890  01FE86  EF5A  F0FF         	goto	l1250
   891  01FE8A                     l1244:
   892  01FE8A  90D8               	bcf	status,0,c
   893  01FE8C  360F               	rlcf	___fldiv@b^0,f,c
   894  01FE8E  3610               	rlcf	(___fldiv@b+1)^0,f,c
   895  01FE90  3611               	rlcf	(___fldiv@b+2)^0,f,c
   896  01FE92  3612               	rlcf	(___fldiv@b+3)^0,f,c
   897  01FE94  AE25               	btfss	(___fldiv@grs+3)^0,7,c
   898  01FE96  EF4F  F0FF         	goto	u621
   899  01FE9A  EF51  F0FF         	goto	u620
   900  01FE9E                     u621:
   901  01FE9E  EF52  F0FF         	goto	l694
   902  01FEA2                     u620:
   903  01FEA2  800F               	bsf	___fldiv@b^0,0,c
   904  01FEA4                     l694:
   905  01FEA4  90D8               	bcf	status,0,c
   906  01FEA6  3622               	rlcf	___fldiv@grs^0,f,c
   907  01FEA8  3623               	rlcf	(___fldiv@grs+1)^0,f,c
   908  01FEAA  3624               	rlcf	(___fldiv@grs+2)^0,f,c
   909  01FEAC  3625               	rlcf	(___fldiv@grs+3)^0,f,c
   910  01FEAE  0620               	decf	___fldiv@new_exp^0,f,c
   911  01FEB0  A0D8               	btfss	status,0,c
   912  01FEB2  0621               	decf	(___fldiv@new_exp+1)^0,f,c
   913  01FEB4                     l1250:
   914  01FEB4  AE11               	btfss	(___fldiv@b+2)^0,7,c
   915  01FEB6  EF5F  F0FF         	goto	u631
   916  01FEBA  EF61  F0FF         	goto	u630
   917  01FEBE                     u631:
   918  01FEBE  EF45  F0FF         	goto	l1244
   919  01FEC2                     u630:
   920  01FEC2  0E00               	movlw	0
   921  01FEC4  6E27               	movwf	___fldiv@aexp^0,c
   922  01FEC6  AE25               	btfss	(___fldiv@grs+3)^0,7,c
   923  01FEC8  EF68  F0FF         	goto	u641
   924  01FECC  EF6A  F0FF         	goto	u640
   925  01FED0                     u641:
   926  01FED0  EF8E  F0FF         	goto	l696
   927  01FED4                     u640:
   928  01FED4  0EFF               	movlw	255
   929  01FED6  1422               	andwf	___fldiv@grs^0,w,c
   930  01FED8  6E17               	movwf	??___fldiv^0,c
   931  01FEDA  0EFF               	movlw	255
   932  01FEDC  1423               	andwf	(___fldiv@grs+1)^0,w,c
   933  01FEDE  6E18               	movwf	(??___fldiv+1)^0,c
   934  01FEE0  0EFF               	movlw	255
   935  01FEE2  1424               	andwf	(___fldiv@grs+2)^0,w,c
   936  01FEE4  6E19               	movwf	(??___fldiv+2)^0,c
   937  01FEE6  0E7F               	movlw	127
   938  01FEE8  1425               	andwf	(___fldiv@grs+3)^0,w,c
   939  01FEEA  6E1A               	movwf	(??___fldiv+3)^0,c
   940  01FEEC  5017               	movf	??___fldiv^0,w,c
   941  01FEEE  1018               	iorwf	(??___fldiv+1)^0,w,c
   942  01FEF0  1019               	iorwf	(??___fldiv+2)^0,w,c
   943  01FEF2  101A               	iorwf	(??___fldiv+3)^0,w,c
   944  01FEF4  B4D8               	btfsc	status,2,c
   945  01FEF6  EF7F  F0FF         	goto	u651
   946  01FEFA  EF81  F0FF         	goto	u650
   947  01FEFE                     u651:
   948  01FEFE  EF85  F0FF         	goto	l697
   949  01FF02                     u650:
   950  01FF02                     l1258:
   951  01FF02  0E01               	movlw	1
   952  01FF04  6E27               	movwf	___fldiv@aexp^0,c
   953  01FF06  EF8E  F0FF         	goto	l696
   954  01FF0A                     l697:
   955  01FF0A  A00F               	btfss	___fldiv@b^0,0,c
   956  01FF0C  EF8A  F0FF         	goto	u661
   957  01FF10  EF8C  F0FF         	goto	u660
   958  01FF14                     u661:
   959  01FF14  EF8E  F0FF         	goto	l696
   960  01FF18                     u660:
   961  01FF18  EF81  F0FF         	goto	l1258
   962  01FF1C                     l696:
   963  01FF1C  5027               	movf	___fldiv@aexp^0,w,c
   964  01FF1E  B4D8               	btfsc	status,2,c
   965  01FF20  EF94  F0FF         	goto	u671
   966  01FF24  EF96  F0FF         	goto	u670
   967  01FF28                     u671:
   968  01FF28  EFBA  F0FF         	goto	l1270
   969  01FF2C                     u670:
   970  01FF2C  0E01               	movlw	1
   971  01FF2E  260F               	addwf	___fldiv@b^0,f,c
   972  01FF30  0E00               	movlw	0
   973  01FF32  2210               	addwfc	(___fldiv@b+1)^0,f,c
   974  01FF34  2211               	addwfc	(___fldiv@b+2)^0,f,c
   975  01FF36  2212               	addwfc	(___fldiv@b+3)^0,f,c
   976  01FF38  A012               	btfss	(___fldiv@b+3)^0,0,c
   977  01FF3A  EFA1  F0FF         	goto	u681
   978  01FF3E  EFA3  F0FF         	goto	u680
   979  01FF42                     u681:
   980  01FF42  EFBA  F0FF         	goto	l1270
   981  01FF46                     u680:
   982  01FF46  C00F  F017         	movff	___fldiv@b,??___fldiv
   983  01FF4A  C010  F018         	movff	___fldiv@b+1,??___fldiv+1
   984  01FF4E  C011  F019         	movff	___fldiv@b+2,??___fldiv+2
   985  01FF52  C012  F01A         	movff	___fldiv@b+3,??___fldiv+3
   986  01FF56  341A               	rlcf	(??___fldiv+3)^0,w,c
   987  01FF58  321A               	rrcf	(??___fldiv+3)^0,f,c
   988  01FF5A  3219               	rrcf	(??___fldiv+2)^0,f,c
   989  01FF5C  3218               	rrcf	(??___fldiv+1)^0,f,c
   990  01FF5E  3217               	rrcf	??___fldiv^0,f,c
   991  01FF60  C017  F00F         	movff	??___fldiv,___fldiv@b
   992  01FF64  C018  F010         	movff	??___fldiv+1,___fldiv@b+1
   993  01FF68  C019  F011         	movff	??___fldiv+2,___fldiv@b+2
   994  01FF6C  C01A  F012         	movff	??___fldiv+3,___fldiv@b+3
   995  01FF70  4A20               	infsnz	___fldiv@new_exp^0,f,c
   996  01FF72  2A21               	incf	(___fldiv@new_exp+1)^0,f,c
   997  01FF74                     l1270:
   998  01FF74  BE21               	btfsc	(___fldiv@new_exp+1)^0,7,c
   999  01FF76  EFC5  F0FF         	goto	u691
  1000  01FF7A  5021               	movf	(___fldiv@new_exp+1)^0,w,c
  1001  01FF7C  E108               	bnz	u690
  1002  01FF7E  2820               	incf	___fldiv@new_exp^0,w,c
  1003  01FF80  A0D8               	btfss	status,0,c
  1004  01FF82  EFC5  F0FF         	goto	u691
  1005  01FF86  EFC7  F0FF         	goto	u690
  1006  01FF8A                     u691:
  1007  01FF8A  EFD2  F0FF         	goto	l1274
  1008  01FF8E                     u690:
  1009  01FF8E  0E00               	movlw	0
  1010  01FF90  6E21               	movwf	(___fldiv@new_exp+1)^0,c
  1011  01FF92  6820               	setf	___fldiv@new_exp^0,c
  1012  01FF94  0E00               	movlw	0
  1013  01FF96  6E0F               	movwf	___fldiv@b^0,c
  1014  01FF98  0E00               	movlw	0
  1015  01FF9A  6E10               	movwf	(___fldiv@b+1)^0,c
  1016  01FF9C  0E00               	movlw	0
  1017  01FF9E  6E11               	movwf	(___fldiv@b+2)^0,c
  1018  01FFA0  0E00               	movlw	0
  1019  01FFA2  6E12               	movwf	(___fldiv@b+3)^0,c
  1020  01FFA4                     l1274:
  1021  01FFA4  BE21               	btfsc	(___fldiv@new_exp+1)^0,7,c
  1022  01FFA6  EFDF  F0FF         	goto	u700
  1023  01FFAA  5021               	movf	(___fldiv@new_exp+1)^0,w,c
  1024  01FFAC  E106               	bnz	u701
  1025  01FFAE  0420               	decf	___fldiv@new_exp^0,w,c
  1026  01FFB0  B0D8               	btfsc	status,0,c
  1027  01FFB2  EFDD  F0FF         	goto	u701
  1028  01FFB6  EFDF  F0FF         	goto	u700
  1029  01FFBA                     u701:
  1030  01FFBA  EFED  F0FF         	goto	l1278
  1031  01FFBE                     u700:
  1032  01FFBE  0E00               	movlw	0
  1033  01FFC0  6E21               	movwf	(___fldiv@new_exp+1)^0,c
  1034  01FFC2  0E00               	movlw	0
  1035  01FFC4  6E20               	movwf	___fldiv@new_exp^0,c
  1036  01FFC6  0E00               	movlw	0
  1037  01FFC8  6E0F               	movwf	___fldiv@b^0,c
  1038  01FFCA  0E00               	movlw	0
  1039  01FFCC  6E10               	movwf	(___fldiv@b+1)^0,c
  1040  01FFCE  0E00               	movlw	0
  1041  01FFD0  6E11               	movwf	(___fldiv@b+2)^0,c
  1042  01FFD2  0E00               	movlw	0
  1043  01FFD4  6E12               	movwf	(___fldiv@b+3)^0,c
  1044  01FFD6  0E00               	movlw	0
  1045  01FFD8  6E1F               	movwf	___fldiv@sign^0,c
  1046  01FFDA                     l1278:
  1047  01FFDA  C020  F026         	movff	___fldiv@new_exp,___fldiv@bexp
  1048  01FFDE  A026               	btfss	___fldiv@bexp^0,0,c
  1049  01FFE0  EFF4  F0FF         	goto	u711
  1050  01FFE4  EFF6  F0FF         	goto	u710
  1051  01FFE8                     u711:
  1052  01FFE8  EFF9  F0FF         	goto	l1284
  1053  01FFEC                     u710:
  1054  01FFEC  8E11               	bsf	(___fldiv@b+2)^0,7,c
  1055  01FFEE  EFFA  F0FF         	goto	l1286
  1056  01FFF2                     l1284:
  1057  01FFF2  9E11               	bcf	(___fldiv@b+2)^0,7,c
  1058  01FFF4                     l1286:
  1059  01FFF4  90D8               	bcf	status,0,c
  1060  01FFF6  3026               	rrcf	___fldiv@bexp^0,w,c
  1061  01FFF8  6E12               	movwf	(___fldiv@b+3)^0,c
  1062  01FFFA  EFB0  F0FE         	goto	l1200
  1063  01FFFE                     l683:
  1064  01FFFE  0012               	return		;funcret
  1065  020000                     __end_of___fldiv:
  1066                           	callstack 0
  1067                           
  1068 ;; *************** function _PPS_Initialize *****************
  1069 ;; Defined at:
  1070 ;;		line 69 in file "main.c"
  1071 ;; Parameters:    Size  Location     Type
  1072 ;;		None
  1073 ;; Auto vars:     Size  Location     Type
  1074 ;;		None
  1075 ;; Return value:  Size  Location     Type
  1076 ;;                  1    wreg      void 
  1077 ;; Registers used:
  1078 ;;		wreg, status,2
  1079 ;; Tracked objects:
  1080 ;;		On entry : 0/0
  1081 ;;		On exit  : 0/0
  1082 ;;		Unchanged: 0/0
  1083 ;; Data sizes:     COMRAM   BANK0   BANK1   BANK2   BANK3   BANK4   BANK5   BANK6   BANK7   BANK8   BANK9  BANK10  BANK1
      +1  BANK12  BANK13  BANK14
  1084 ;;      Params:         0       0       0       0       0       0       0       0       0       0       0       0       
      +0       0       0       0
  1085 ;;      Locals:         0       0       0       0       0       0       0       0       0       0       0       0       
      +0       0       0       0
  1086 ;;      Temps:          0       0       0       0       0       0       0       0       0       0       0       0       
      +0       0       0       0
  1087 ;;      Totals:         0       0       0       0       0       0       0       0       0       0       0       0       
      +0       0       0       0
  1088 ;;Total ram usage:        0 bytes
  1089 ;; Hardware stack levels used:    1
  1090 ;; This function calls:
  1091 ;;		Nothing
  1092 ;; This function is called by:
  1093 ;;		_main
  1094 ;; This function uses a non-reentrant model
  1095 ;;
  1096                           
  1097                           	psect	text3
  1098  01F8D6                     __ptext3:
  1099                           	callstack 0
  1100  01F8D6                     _PPS_Initialize:
  1101                           	callstack 30
  1102  01F8D6                     
  1103                           ;main.c: 72:     SSP1CLKPPS = 0x09;
  1104  01F8D6  0E09               	movlw	9
  1105  01F8D8  010E               	movlb	14	; () banked
  1106  01F8DA  6FB2               	movwf	178,b	;volatile
  1107                           
  1108                           ;main.c: 73:     RB1PPS = 0x0F;
  1109  01F8DC  0E0F               	movlw	15
  1110  01F8DE  6FEB               	movwf	235,b	;volatile
  1111                           
  1112                           ;main.c: 76:     SSP1DATPPS = 0x0A;
  1113  01F8E0  0E0A               	movlw	10
  1114  01F8E2  6FB3               	movwf	179,b	;volatile
  1115                           
  1116                           ;main.c: 77:     RB2PPS = 0x10;
  1117  01F8E4  0E10               	movlw	16
  1118  01F8E6  6FEC               	movwf	236,b	;volatile
  1119  01F8E8                     
  1120                           ; BSR set to: 14
  1121  01F8E8  0012               	return		;funcret
  1122  01F8EA                     __end_of_PPS_Initialize:
  1123                           	callstack 0
  1124                           
  1125 ;; *************** function _PORT_Initialize *****************
  1126 ;; Defined at:
  1127 ;;		line 80 in file "main.c"
  1128 ;; Parameters:    Size  Location     Type
  1129 ;;		None
  1130 ;; Auto vars:     Size  Location     Type
  1131 ;;		None
  1132 ;; Return value:  Size  Location     Type
  1133 ;;                  1    wreg      void 
  1134 ;; Registers used:
  1135 ;;		None
  1136 ;; Tracked objects:
  1137 ;;		On entry : 0/0
  1138 ;;		On exit  : 0/0
  1139 ;;		Unchanged: 0/0
  1140 ;; Data sizes:     COMRAM   BANK0   BANK1   BANK2   BANK3   BANK4   BANK5   BANK6   BANK7   BANK8   BANK9  BANK10  BANK1
      +1  BANK12  BANK13  BANK14
  1141 ;;      Params:         0       0       0       0       0       0       0       0       0       0       0       0       
      +0       0       0       0
  1142 ;;      Locals:         0       0       0       0       0       0       0       0       0       0       0       0       
      +0       0       0       0
  1143 ;;      Temps:          0       0       0       0       0       0       0       0       0       0       0       0       
      +0       0       0       0
  1144 ;;      Totals:         0       0       0       0       0       0       0       0       0       0       0       0       
      +0       0       0       0
  1145 ;;Total ram usage:        0 bytes
  1146 ;; Hardware stack levels used:    1
  1147 ;; This function calls:
  1148 ;;		Nothing
  1149 ;; This function is called by:
  1150 ;;		_main
  1151 ;; This function uses a non-reentrant model
  1152 ;;
  1153                           
  1154                           	psect	text4
  1155  01F89E                     __ptext4:
  1156                           	callstack 0
  1157  01F89E                     _PORT_Initialize:
  1158                           	callstack 30
  1159  01F89E                     
  1160                           ;main.c: 83:     ANSELBbits.ANSELB1 = 0;
  1161  01F89E  010F               	movlb	15	; () banked
  1162  01F8A0  9314               	bcf	20,1,b	;volatile
  1163                           
  1164                           ;main.c: 84:     ANSELBbits.ANSELB2 = 0;
  1165  01F8A2  9514               	bcf	20,2,b	;volatile
  1166                           
  1167                           ;main.c: 87:     WPUBbits.WPUB1 = 1;
  1168  01F8A4  8313               	bsf	19,1,b	;volatile
  1169                           
  1170                           ;main.c: 88:     WPUBbits.WPUB2 = 1;
  1171  01F8A6  8513               	bsf	19,2,b	;volatile
  1172                           
  1173                           ;main.c: 91:     ODCONBbits.ODCB1 = 1;
  1174  01F8A8  8312               	bsf	18,1,b	;volatile
  1175                           
  1176                           ;main.c: 92:     ODCONBbits.ODCB2 = 1;
  1177  01F8AA  8512               	bsf	18,2,b	;volatile
  1178  01F8AC                     
  1179                           ; BSR set to: 15
  1180  01F8AC  0012               	return		;funcret
  1181  01F8AE                     __end_of_PORT_Initialize:
  1182                           	callstack 0
  1183                           
  1184 ;; *************** function _I2C1_write1ByteRegister *****************
  1185 ;; Defined at:
  1186 ;;		line 190 in file "main.c"
  1187 ;; Parameters:    Size  Location     Type
  1188 ;;  address         1    wreg     unsigned char 
  1189 ;;  reg             1    1[COMRAM] unsigned char 
  1190 ;;  data            1    2[COMRAM] unsigned char 
  1191 ;; Auto vars:     Size  Location     Type
  1192 ;;  address         1    3[COMRAM] unsigned char 
  1193 ;;  writeAddress    1    4[COMRAM] unsigned char 
  1194 ;; Return value:  Size  Location     Type
  1195 ;;                  1    wreg      void 
  1196 ;; Registers used:
  1197 ;;		wreg, status,2, status,0, cstack
  1198 ;; Tracked objects:
  1199 ;;		On entry : 0/0
  1200 ;;		On exit  : 0/0
  1201 ;;		Unchanged: 0/0
  1202 ;; Data sizes:     COMRAM   BANK0   BANK1   BANK2   BANK3   BANK4   BANK5   BANK6   BANK7   BANK8   BANK9  BANK10  BANK1
      +1  BANK12  BANK13  BANK14
  1203 ;;      Params:         2       0       0       0       0       0       0       0       0       0       0       0       
      +0       0       0       0
  1204 ;;      Locals:         2       0       0       0       0       0       0       0       0       0       0       0       
      +0       0       0       0
  1205 ;;      Temps:          0       0       0       0       0       0       0       0       0       0       0       0       
      +0       0       0       0
  1206 ;;      Totals:         4       0       0       0       0       0       0       0       0       0       0       0       
      +0       0       0       0
  1207 ;;Total ram usage:        4 bytes
  1208 ;; Hardware stack levels used:    1
  1209 ;; Hardware stack levels required when called:    2
  1210 ;; This function calls:
  1211 ;;		_I2C1_close
  1212 ;;		_I2C1_getAckstatBit
  1213 ;;		_I2C1_open
  1214 ;;		_I2C1_sendData
  1215 ;;		_I2C1_startCondition
  1216 ;;		_I2C1_stopCondition
  1217 ;; This function is called by:
  1218 ;;		_main
  1219 ;; This function uses a non-reentrant model
  1220 ;;
  1221                           
  1222                           	psect	text5
  1223  01F8EA                     __ptext5:
  1224                           	callstack 0
  1225  01F8EA                     _I2C1_write1ByteRegister:
  1226                           	callstack 28
  1227                           
  1228                           ; BSR set to: 15
  1229                           ;incstack = 0
  1230                           ;I2C1_write1ByteRegister@address stored from wreg
  1231  01F8EA  6E04               	movwf	I2C1_write1ByteRegister@address^0,c
  1232  01F8EC                     
  1233                           ;main.c: 190: static void I2C1_write1ByteRegister(uint8_t address, uint8_t reg, uint8_t 
      +                          data);main.c: 191: {;main.c: 193:     uint8_t writeAddress = (address << 1) & ~0x01;
  1234  01F8EC  5004               	movf	I2C1_write1ByteRegister@address^0,w,c
  1235  01F8EE  2404               	addwf	I2C1_write1ByteRegister@address^0,w,c
  1236  01F8F0  0BFE               	andlw	254
  1237  01F8F2  6E05               	movwf	I2C1_write1ByteRegister@writeAddress^0,c
  1238  01F8F4                     
  1239                           ;main.c: 195:     I2C1_open();
  1240  01F8F4  EC26  F0FC         	call	_I2C1_open	;wreg free
  1241  01F8F8                     
  1242                           ;main.c: 196:     I2C1_startCondition();
  1243  01F8F8  EC2A  F0FC         	call	_I2C1_startCondition	;wreg free
  1244  01F8FC                     
  1245                           ;main.c: 198:     I2C1_sendData(writeAddress);
  1246  01F8FC  5005               	movf	I2C1_write1ByteRegister@writeAddress^0,w,c
  1247  01F8FE  EC42  F0FC         	call	_I2C1_sendData
  1248  01F902                     
  1249                           ;main.c: 199:     if (I2C1_getAckstatBit())
  1250  01F902  EC57  F0FC         	call	_I2C1_getAckstatBit	;wreg free
  1251  01F906  0900               	iorlw	0
  1252  01F908  B4D8               	btfsc	status,2,c
  1253  01F90A  EF89  F0FC         	goto	u431
  1254  01F90E  EF8B  F0FC         	goto	u430
  1255  01F912                     u431:
  1256  01F912  EF8D  F0FC         	goto	l1102
  1257  01F916                     u430:
  1258  01F916  EFAF  F0FC         	goto	l82
  1259  01F91A                     l1102:
  1260                           
  1261                           ;main.c: 204:     I2C1_sendData(reg);
  1262  01F91A  5002               	movf	I2C1_write1ByteRegister@reg^0,w,c
  1263  01F91C  EC42  F0FC         	call	_I2C1_sendData
  1264                           
  1265                           ;main.c: 205:     if (I2C1_getAckstatBit())
  1266  01F920  EC57  F0FC         	call	_I2C1_getAckstatBit	;wreg free
  1267  01F924  0900               	iorlw	0
  1268  01F926  B4D8               	btfsc	status,2,c
  1269  01F928  EF98  F0FC         	goto	u441
  1270  01F92C  EF9A  F0FC         	goto	u440
  1271  01F930                     u441:
  1272  01F930  EF9C  F0FC         	goto	l1106
  1273  01F934                     u440:
  1274  01F934  EFAF  F0FC         	goto	l82
  1275  01F938                     l1106:
  1276                           
  1277                           ;main.c: 210:     I2C1_sendData(data);
  1278  01F938  5003               	movf	I2C1_write1ByteRegister@data^0,w,c
  1279  01F93A  EC42  F0FC         	call	_I2C1_sendData
  1280                           
  1281                           ;main.c: 211:     if (I2C1_getAckstatBit())
  1282  01F93E  EC57  F0FC         	call	_I2C1_getAckstatBit	;wreg free
  1283  01F942  0900               	iorlw	0
  1284  01F944  B4D8               	btfsc	status,2,c
  1285  01F946  EFA7  F0FC         	goto	u451
  1286  01F94A  EFA9  F0FC         	goto	u450
  1287  01F94E                     u451:
  1288  01F94E  EFAB  F0FC         	goto	l1110
  1289  01F952                     u450:
  1290  01F952  EFAF  F0FC         	goto	l82
  1291  01F956                     l1110:
  1292                           
  1293                           ;main.c: 216:     I2C1_stopCondition();
  1294  01F956  EC2E  F0FC         	call	_I2C1_stopCondition	;wreg free
  1295                           
  1296                           ;main.c: 217:     I2C1_close();
  1297  01F95A  EC1B  F0FC         	call	_I2C1_close	;wreg free
  1298  01F95E                     l82:
  1299  01F95E  0012               	return		;funcret
  1300  01F960                     __end_of_I2C1_write1ByteRegister:
  1301                           	callstack 0
  1302                           
  1303 ;; *************** function _I2C1_read2ByteRegister *****************
  1304 ;; Defined at:
  1305 ;;		line 220 in file "main.c"
  1306 ;; Parameters:    Size  Location     Type
  1307 ;;  address         1    wreg     unsigned char 
  1308 ;;  reg             1    1[COMRAM] unsigned char 
  1309 ;; Auto vars:     Size  Location     Type
  1310 ;;  address         1    9[COMRAM] unsigned char 
  1311 ;;  dataRead        2    7[COMRAM] unsigned char [2]
  1312 ;;  readAddress     1    6[COMRAM] unsigned char 
  1313 ;;  writeAddress    1    5[COMRAM] unsigned char 
  1314 ;; Return value:  Size  Location     Type
  1315 ;;                  2    1[COMRAM] unsigned short 
  1316 ;; Registers used:
  1317 ;;		wreg, status,2, status,0, cstack
  1318 ;; Tracked objects:
  1319 ;;		On entry : 0/0
  1320 ;;		On exit  : 0/0
  1321 ;;		Unchanged: 0/0
  1322 ;; Data sizes:     COMRAM   BANK0   BANK1   BANK2   BANK3   BANK4   BANK5   BANK6   BANK7   BANK8   BANK9  BANK10  BANK1
      +1  BANK12  BANK13  BANK14
  1323 ;;      Params:         2       0       0       0       0       0       0       0       0       0       0       0       
      +0       0       0       0
  1324 ;;      Locals:         5       0       0       0       0       0       0       0       0       0       0       0       
      +0       0       0       0
  1325 ;;      Temps:          2       0       0       0       0       0       0       0       0       0       0       0       
      +0       0       0       0
  1326 ;;      Totals:         9       0       0       0       0       0       0       0       0       0       0       0       
      +0       0       0       0
  1327 ;;Total ram usage:        9 bytes
  1328 ;; Hardware stack levels used:    1
  1329 ;; Hardware stack levels required when called:    2
  1330 ;; This function calls:
  1331 ;;		_I2C1_close
  1332 ;;		_I2C1_getAckstatBit
  1333 ;;		_I2C1_open
  1334 ;;		_I2C1_readData
  1335 ;;		_I2C1_sendAcknowledge
  1336 ;;		_I2C1_sendData
  1337 ;;		_I2C1_sendNotAcknowledge
  1338 ;;		_I2C1_setRecieveMode
  1339 ;;		_I2C1_startCondition
  1340 ;;		_I2C1_stopCondition
  1341 ;; This function is called by:
  1342 ;;		_main
  1343 ;; This function uses a non-reentrant model
  1344 ;;
  1345                           
  1346                           	psect	text6
  1347  01F9FC                     __ptext6:
  1348                           	callstack 0
  1349  01F9FC                     _I2C1_read2ByteRegister:
  1350                           	callstack 28
  1351                           
  1352                           ;incstack = 0
  1353                           ;I2C1_read2ByteRegister@address stored from wreg
  1354  01F9FC  6E0A               	movwf	I2C1_read2ByteRegister@address^0,c
  1355  01F9FE                     
  1356                           ;main.c: 220: uint16_t I2C1_read2ByteRegister(uint8_t address, uint8_t reg);main.c: 221:
      +                           {;main.c: 223:     uint8_t writeAddress = (address << 1) & ~0x01;
  1357  01F9FE  500A               	movf	I2C1_read2ByteRegister@address^0,w,c
  1358  01FA00  240A               	addwf	I2C1_read2ByteRegister@address^0,w,c
  1359  01FA02  0BFE               	andlw	254
  1360  01FA04  6E06               	movwf	I2C1_read2ByteRegister@writeAddress^0,c
  1361                           
  1362                           ;main.c: 224:     uint8_t readAddress = (address << 1) | 0x01;
  1363  01FA06  80D8               	bsf	status,0,c
  1364  01FA08  340A               	rlcf	I2C1_read2ByteRegister@address^0,w,c
  1365  01FA0A  6E07               	movwf	I2C1_read2ByteRegister@readAddress^0,c
  1366  01FA0C                     
  1367                           ;main.c: 225:     uint8_t dataRead[2];;main.c: 227:     I2C1_open();
  1368  01FA0C  EC26  F0FC         	call	_I2C1_open	;wreg free
  1369  01FA10                     
  1370                           ;main.c: 228:     I2C1_startCondition();
  1371  01FA10  EC2A  F0FC         	call	_I2C1_startCondition	;wreg free
  1372  01FA14                     
  1373                           ;main.c: 230:     I2C1_sendData(writeAddress);
  1374  01FA14  5006               	movf	I2C1_read2ByteRegister@writeAddress^0,w,c
  1375  01FA16  EC42  F0FC         	call	_I2C1_sendData
  1376  01FA1A                     
  1377                           ;main.c: 231:     if (I2C1_getAckstatBit())
  1378  01FA1A  EC57  F0FC         	call	_I2C1_getAckstatBit	;wreg free
  1379  01FA1E  0900               	iorlw	0
  1380  01FA20  B4D8               	btfsc	status,2,c
  1381  01FA22  EF15  F0FD         	goto	u461
  1382  01FA26  EF17  F0FD         	goto	u460
  1383  01FA2A                     u461:
  1384  01FA2A  EF1D  F0FD         	goto	l1126
  1385  01FA2E                     u460:
  1386  01FA2E                     l1122:
  1387                           
  1388                           ;main.c: 232:     {;main.c: 233:         return 0x0042;
  1389  01FA2E  0E00               	movlw	0
  1390  01FA30  6E03               	movwf	(?_I2C1_read2ByteRegister+1)^0,c
  1391  01FA32  0E42               	movlw	66
  1392  01FA34  6E02               	movwf	?_I2C1_read2ByteRegister^0,c
  1393  01FA36  EF58  F0FD         	goto	l88
  1394  01FA3A                     l1126:
  1395                           
  1396                           ;main.c: 236:     I2C1_sendData(reg);
  1397  01FA3A  5002               	movf	I2C1_read2ByteRegister@reg^0,w,c
  1398  01FA3C  EC42  F0FC         	call	_I2C1_sendData
  1399                           
  1400                           ;main.c: 237:     if (I2C1_getAckstatBit())
  1401  01FA40  EC57  F0FC         	call	_I2C1_getAckstatBit	;wreg free
  1402  01FA44  0900               	iorlw	0
  1403  01FA46  B4D8               	btfsc	status,2,c
  1404  01FA48  EF28  F0FD         	goto	u471
  1405  01FA4C  EF2A  F0FD         	goto	u470
  1406  01FA50                     u471:
  1407  01FA50  EF2C  F0FD         	goto	l1132
  1408  01FA54                     u470:
  1409  01FA54  EF17  F0FD         	goto	l1122
  1410  01FA58                     l1132:
  1411                           
  1412                           ;main.c: 242:     I2C1_startCondition();
  1413  01FA58  EC2A  F0FC         	call	_I2C1_startCondition	;wreg free
  1414  01FA5C                     
  1415                           ;main.c: 244:     I2C1_sendData(readAddress);
  1416  01FA5C  5007               	movf	I2C1_read2ByteRegister@readAddress^0,w,c
  1417  01FA5E  EC42  F0FC         	call	_I2C1_sendData
  1418  01FA62                     
  1419                           ;main.c: 246:     if (I2C1_getAckstatBit())
  1420  01FA62  EC57  F0FC         	call	_I2C1_getAckstatBit	;wreg free
  1421  01FA66  0900               	iorlw	0
  1422  01FA68  B4D8               	btfsc	status,2,c
  1423  01FA6A  EF39  F0FD         	goto	u481
  1424  01FA6E  EF3B  F0FD         	goto	u480
  1425  01FA72                     u481:
  1426  01FA72  EF3D  F0FD         	goto	l1142
  1427  01FA76                     u480:
  1428  01FA76  EF17  F0FD         	goto	l1122
  1429  01FA7A                     l1142:
  1430                           
  1431                           ;main.c: 250:     I2C1_setRecieveMode();
  1432  01FA7A  EC1D  F0FC         	call	_I2C1_setRecieveMode	;wreg free
  1433  01FA7E                     
  1434                           ;main.c: 253:     dataRead[0] = I2C1_readData();
  1435  01FA7E  EC3C  F0FC         	call	_I2C1_readData	;wreg free
  1436  01FA82  6E08               	movwf	I2C1_read2ByteRegister@dataRead^0,c
  1437  01FA84                     
  1438                           ;main.c: 255:     I2C1_sendAcknowledge();
  1439  01FA84  EC32  F0FC         	call	_I2C1_sendAcknowledge	;wreg free
  1440  01FA88                     
  1441                           ;main.c: 257:     I2C1_setRecieveMode();
  1442  01FA88  EC1D  F0FC         	call	_I2C1_setRecieveMode	;wreg free
  1443  01FA8C                     
  1444                           ;main.c: 259:     dataRead[1] = I2C1_readData();
  1445  01FA8C  EC3C  F0FC         	call	_I2C1_readData	;wreg free
  1446  01FA90  6E09               	movwf	(I2C1_read2ByteRegister@dataRead+1)^0,c
  1447                           
  1448                           ;main.c: 261:     I2C1_sendNotAcknowledge();
  1449  01FA92  EC37  F0FC         	call	_I2C1_sendNotAcknowledge	;wreg free
  1450                           
  1451                           ;main.c: 263:     I2C1_stopCondition();
  1452  01FA96  EC2E  F0FC         	call	_I2C1_stopCondition	;wreg free
  1453                           
  1454                           ;main.c: 264:     I2C1_close();
  1455  01FA9A  EC1B  F0FC         	call	_I2C1_close	;wreg free
  1456  01FA9E                     
  1457                           ;main.c: 266:     return (uint16_t)((dataRead[0] << 8) + dataRead[1]);
  1458  01FA9E  5008               	movf	I2C1_read2ByteRegister@dataRead^0,w,c
  1459  01FAA0  6E05               	movwf	(??_I2C1_read2ByteRegister+1)^0,c
  1460  01FAA2  6A04               	clrf	??_I2C1_read2ByteRegister^0,c
  1461  01FAA4  5009               	movf	(I2C1_read2ByteRegister@dataRead+1)^0,w,c
  1462  01FAA6  2404               	addwf	??_I2C1_read2ByteRegister^0,w,c
  1463  01FAA8  6E02               	movwf	?_I2C1_read2ByteRegister^0,c
  1464  01FAAA  0E00               	movlw	0
  1465  01FAAC  2005               	addwfc	(??_I2C1_read2ByteRegister+1)^0,w,c
  1466  01FAAE  6E03               	movwf	(?_I2C1_read2ByteRegister+1)^0,c
  1467  01FAB0                     l88:
  1468  01FAB0  0012               	return		;funcret
  1469  01FAB2                     __end_of_I2C1_read2ByteRegister:
  1470                           	callstack 0
  1471                           
  1472 ;; *************** function _I2C1_stopCondition *****************
  1473 ;; Defined at:
  1474 ;;		line 140 in file "main.c"
  1475 ;; Parameters:    Size  Location     Type
  1476 ;;		None
  1477 ;; Auto vars:     Size  Location     Type
  1478 ;;		None
  1479 ;; Return value:  Size  Location     Type
  1480 ;;                  1    wreg      void 
  1481 ;; Registers used:
  1482 ;;		cstack
  1483 ;; Tracked objects:
  1484 ;;		On entry : 0/0
  1485 ;;		On exit  : 0/0
  1486 ;;		Unchanged: 0/0
  1487 ;; Data sizes:     COMRAM   BANK0   BANK1   BANK2   BANK3   BANK4   BANK5   BANK6   BANK7   BANK8   BANK9  BANK10  BANK1
      +1  BANK12  BANK13  BANK14
  1488 ;;      Params:         0       0       0       0       0       0       0       0       0       0       0       0       
      +0       0       0       0
  1489 ;;      Locals:         0       0       0       0       0       0       0       0       0       0       0       0       
      +0       0       0       0
  1490 ;;      Temps:          0       0       0       0       0       0       0       0       0       0       0       0       
      +0       0       0       0
  1491 ;;      Totals:         0       0       0       0       0       0       0       0       0       0       0       0       
      +0       0       0       0
  1492 ;;Total ram usage:        0 bytes
  1493 ;; Hardware stack levels used:    1
  1494 ;; Hardware stack levels required when called:    1
  1495 ;; This function calls:
  1496 ;;		_I2C1_interruptFlagPolling
  1497 ;; This function is called by:
  1498 ;;		_I2C1_write1ByteRegister
  1499 ;;		_I2C1_read2ByteRegister
  1500 ;; This function uses a non-reentrant model
  1501 ;;
  1502                           
  1503                           	psect	text7
  1504  01F85C                     __ptext7:
  1505                           	callstack 0
  1506  01F85C                     _I2C1_stopCondition:
  1507                           	callstack 28
  1508  01F85C                     
  1509                           ;main.c: 143:     SSP1CON2bits.PEN = 1;
  1510  01F85C  8496               	bsf	150,2,c	;volatile
  1511  01F85E                     
  1512                           ;main.c: 145:     I2C1_interruptFlagPolling();
  1513  01F85E  EC61  F0FC         	call	_I2C1_interruptFlagPolling	;wreg free
  1514  01F862  0012               	return		;funcret
  1515  01F864                     __end_of_I2C1_stopCondition:
  1516                           	callstack 0
  1517                           
  1518 ;; *************** function _I2C1_startCondition *****************
  1519 ;; Defined at:
  1520 ;;		line 132 in file "main.c"
  1521 ;; Parameters:    Size  Location     Type
  1522 ;;		None
  1523 ;; Auto vars:     Size  Location     Type
  1524 ;;		None
  1525 ;; Return value:  Size  Location     Type
  1526 ;;                  1    wreg      void 
  1527 ;; Registers used:
  1528 ;;		cstack
  1529 ;; Tracked objects:
  1530 ;;		On entry : 0/0
  1531 ;;		On exit  : 0/0
  1532 ;;		Unchanged: 0/0
  1533 ;; Data sizes:     COMRAM   BANK0   BANK1   BANK2   BANK3   BANK4   BANK5   BANK6   BANK7   BANK8   BANK9  BANK10  BANK1
      +1  BANK12  BANK13  BANK14
  1534 ;;      Params:         0       0       0       0       0       0       0       0       0       0       0       0       
      +0       0       0       0
  1535 ;;      Locals:         0       0       0       0       0       0       0       0       0       0       0       0       
      +0       0       0       0
  1536 ;;      Temps:          0       0       0       0       0       0       0       0       0       0       0       0       
      +0       0       0       0
  1537 ;;      Totals:         0       0       0       0       0       0       0       0       0       0       0       0       
      +0       0       0       0
  1538 ;;Total ram usage:        0 bytes
  1539 ;; Hardware stack levels used:    1
  1540 ;; Hardware stack levels required when called:    1
  1541 ;; This function calls:
  1542 ;;		_I2C1_interruptFlagPolling
  1543 ;; This function is called by:
  1544 ;;		_I2C1_write1ByteRegister
  1545 ;;		_I2C1_read2ByteRegister
  1546 ;; This function uses a non-reentrant model
  1547 ;;
  1548                           
  1549                           	psect	text8
  1550  01F854                     __ptext8:
  1551                           	callstack 0
  1552  01F854                     _I2C1_startCondition:
  1553                           	callstack 28
  1554  01F854                     
  1555                           ;main.c: 135:     SSP1CON2bits.SEN = 1;
  1556  01F854  8096               	bsf	150,0,c	;volatile
  1557  01F856                     
  1558                           ;main.c: 137:     I2C1_interruptFlagPolling();
  1559  01F856  EC61  F0FC         	call	_I2C1_interruptFlagPolling	;wreg free
  1560  01F85A  0012               	return		;funcret
  1561  01F85C                     __end_of_I2C1_startCondition:
  1562                           	callstack 0
  1563                           
  1564 ;; *************** function _I2C1_setRecieveMode *****************
  1565 ;; Defined at:
  1566 ;;		line 154 in file "main.c"
  1567 ;; Parameters:    Size  Location     Type
  1568 ;;		None
  1569 ;; Auto vars:     Size  Location     Type
  1570 ;;		None
  1571 ;; Return value:  Size  Location     Type
  1572 ;;                  1    wreg      void 
  1573 ;; Registers used:
  1574 ;;		None
  1575 ;; Tracked objects:
  1576 ;;		On entry : 0/0
  1577 ;;		On exit  : 0/0
  1578 ;;		Unchanged: 0/0
  1579 ;; Data sizes:     COMRAM   BANK0   BANK1   BANK2   BANK3   BANK4   BANK5   BANK6   BANK7   BANK8   BANK9  BANK10  BANK1
      +1  BANK12  BANK13  BANK14
  1580 ;;      Params:         0       0       0       0       0       0       0       0       0       0       0       0       
      +0       0       0       0
  1581 ;;      Locals:         0       0       0       0       0       0       0       0       0       0       0       0       
      +0       0       0       0
  1582 ;;      Temps:          0       0       0       0       0       0       0       0       0       0       0       0       
      +0       0       0       0
  1583 ;;      Totals:         0       0       0       0       0       0       0       0       0       0       0       0       
      +0       0       0       0
  1584 ;;Total ram usage:        0 bytes
  1585 ;; Hardware stack levels used:    1
  1586 ;; This function calls:
  1587 ;;		Nothing
  1588 ;; This function is called by:
  1589 ;;		_I2C1_read2ByteRegister
  1590 ;; This function uses a non-reentrant model
  1591 ;;
  1592                           
  1593                           	psect	text9
  1594  01F83A                     __ptext9:
  1595                           	callstack 0
  1596  01F83A                     _I2C1_setRecieveMode:
  1597                           	callstack 29
  1598  01F83A                     
  1599                           ;main.c: 157:     SSP1CON2bits.RCEN = 1;
  1600  01F83A  8696               	bsf	150,3,c	;volatile
  1601  01F83C  0012               	return		;funcret
  1602  01F83E                     __end_of_I2C1_setRecieveMode:
  1603                           	callstack 0
  1604                           
  1605 ;; *************** function _I2C1_sendNotAcknowledge *****************
  1606 ;; Defined at:
  1607 ;;		line 181 in file "main.c"
  1608 ;; Parameters:    Size  Location     Type
  1609 ;;		None
  1610 ;; Auto vars:     Size  Location     Type
  1611 ;;		None
  1612 ;; Return value:  Size  Location     Type
  1613 ;;                  1    wreg      void 
  1614 ;; Registers used:
  1615 ;;		cstack
  1616 ;; Tracked objects:
  1617 ;;		On entry : 0/0
  1618 ;;		On exit  : 0/0
  1619 ;;		Unchanged: 0/0
  1620 ;; Data sizes:     COMRAM   BANK0   BANK1   BANK2   BANK3   BANK4   BANK5   BANK6   BANK7   BANK8   BANK9  BANK10  BANK1
      +1  BANK12  BANK13  BANK14
  1621 ;;      Params:         0       0       0       0       0       0       0       0       0       0       0       0       
      +0       0       0       0
  1622 ;;      Locals:         0       0       0       0       0       0       0       0       0       0       0       0       
      +0       0       0       0
  1623 ;;      Temps:          0       0       0       0       0       0       0       0       0       0       0       0       
      +0       0       0       0
  1624 ;;      Totals:         0       0       0       0       0       0       0       0       0       0       0       0       
      +0       0       0       0
  1625 ;;Total ram usage:        0 bytes
  1626 ;; Hardware stack levels used:    1
  1627 ;; Hardware stack levels required when called:    1
  1628 ;; This function calls:
  1629 ;;		_I2C1_interruptFlagPolling
  1630 ;; This function is called by:
  1631 ;;		_I2C1_read2ByteRegister
  1632 ;; This function uses a non-reentrant model
  1633 ;;
  1634                           
  1635                           	psect	text10
  1636  01F86E                     __ptext10:
  1637                           	callstack 0
  1638  01F86E                     _I2C1_sendNotAcknowledge:
  1639                           	callstack 28
  1640  01F86E                     
  1641                           ;main.c: 184:     SSP1CON2bits.ACKDT = 1;
  1642  01F86E  8A96               	bsf	150,5,c	;volatile
  1643                           
  1644                           ;main.c: 185:     SSP1CON2bits.ACKEN = 1;
  1645  01F870  8896               	bsf	150,4,c	;volatile
  1646  01F872                     
  1647                           ;main.c: 186:     I2C1_interruptFlagPolling();
  1648  01F872  EC61  F0FC         	call	_I2C1_interruptFlagPolling	;wreg free
  1649  01F876  0012               	return		;funcret
  1650  01F878                     __end_of_I2C1_sendNotAcknowledge:
  1651                           	callstack 0
  1652                           
  1653 ;; *************** function _I2C1_sendData *****************
  1654 ;; Defined at:
  1655 ;;		line 148 in file "main.c"
  1656 ;; Parameters:    Size  Location     Type
  1657 ;;  byte            1    wreg     unsigned char 
  1658 ;; Auto vars:     Size  Location     Type
  1659 ;;  byte            1    0[COMRAM] unsigned char 
  1660 ;; Return value:  Size  Location     Type
  1661 ;;                  1    wreg      void 
  1662 ;; Registers used:
  1663 ;;		wreg, cstack
  1664 ;; Tracked objects:
  1665 ;;		On entry : 0/0
  1666 ;;		On exit  : 0/0
  1667 ;;		Unchanged: 0/0
  1668 ;; Data sizes:     COMRAM   BANK0   BANK1   BANK2   BANK3   BANK4   BANK5   BANK6   BANK7   BANK8   BANK9  BANK10  BANK1
      +1  BANK12  BANK13  BANK14
  1669 ;;      Params:         0       0       0       0       0       0       0       0       0       0       0       0       
      +0       0       0       0
  1670 ;;      Locals:         1       0       0       0       0       0       0       0       0       0       0       0       
      +0       0       0       0
  1671 ;;      Temps:          0       0       0       0       0       0       0       0       0       0       0       0       
      +0       0       0       0
  1672 ;;      Totals:         1       0       0       0       0       0       0       0       0       0       0       0       
      +0       0       0       0
  1673 ;;Total ram usage:        1 bytes
  1674 ;; Hardware stack levels used:    1
  1675 ;; Hardware stack levels required when called:    1
  1676 ;; This function calls:
  1677 ;;		_I2C1_interruptFlagPolling
  1678 ;; This function is called by:
  1679 ;;		_I2C1_write1ByteRegister
  1680 ;;		_I2C1_read2ByteRegister
  1681 ;; This function uses a non-reentrant model
  1682 ;;
  1683                           
  1684                           	psect	text11
  1685  01F884                     __ptext11:
  1686                           	callstack 0
  1687  01F884                     _I2C1_sendData:
  1688                           	callstack 28
  1689                           
  1690                           ;incstack = 0
  1691                           ;I2C1_sendData@byte stored from wreg
  1692  01F884  6E01               	movwf	I2C1_sendData@byte^0,c
  1693  01F886                     
  1694                           ;main.c: 148: static void I2C1_sendData(uint8_t byte);main.c: 149: {;main.c: 150:     SS
      +                          P1BUF = byte;
  1695  01F886  C001  FF91         	movff	I2C1_sendData@byte,3985	;volatile
  1696  01F88A                     
  1697                           ;main.c: 151:     I2C1_interruptFlagPolling();
  1698  01F88A  EC61  F0FC         	call	_I2C1_interruptFlagPolling	;wreg free
  1699  01F88E  0012               	return		;funcret
  1700  01F890                     __end_of_I2C1_sendData:
  1701                           	callstack 0
  1702                           
  1703 ;; *************** function _I2C1_sendAcknowledge *****************
  1704 ;; Defined at:
  1705 ;;		line 173 in file "main.c"
  1706 ;; Parameters:    Size  Location     Type
  1707 ;;		None
  1708 ;; Auto vars:     Size  Location     Type
  1709 ;;		None
  1710 ;; Return value:  Size  Location     Type
  1711 ;;                  1    wreg      void 
  1712 ;; Registers used:
  1713 ;;		cstack
  1714 ;; Tracked objects:
  1715 ;;		On entry : 0/0
  1716 ;;		On exit  : 0/0
  1717 ;;		Unchanged: 0/0
  1718 ;; Data sizes:     COMRAM   BANK0   BANK1   BANK2   BANK3   BANK4   BANK5   BANK6   BANK7   BANK8   BANK9  BANK10  BANK1
      +1  BANK12  BANK13  BANK14
  1719 ;;      Params:         0       0       0       0       0       0       0       0       0       0       0       0       
      +0       0       0       0
  1720 ;;      Locals:         0       0       0       0       0       0       0       0       0       0       0       0       
      +0       0       0       0
  1721 ;;      Temps:          0       0       0       0       0       0       0       0       0       0       0       0       
      +0       0       0       0
  1722 ;;      Totals:         0       0       0       0       0       0       0       0       0       0       0       0       
      +0       0       0       0
  1723 ;;Total ram usage:        0 bytes
  1724 ;; Hardware stack levels used:    1
  1725 ;; Hardware stack levels required when called:    1
  1726 ;; This function calls:
  1727 ;;		_I2C1_interruptFlagPolling
  1728 ;; This function is called by:
  1729 ;;		_I2C1_read2ByteRegister
  1730 ;; This function uses a non-reentrant model
  1731 ;;
  1732                           
  1733                           	psect	text12
  1734  01F864                     __ptext12:
  1735                           	callstack 0
  1736  01F864                     _I2C1_sendAcknowledge:
  1737                           	callstack 28
  1738  01F864                     
  1739                           ;main.c: 176:     SSP1CON2bits.ACKDT = 0;
  1740  01F864  9A96               	bcf	150,5,c	;volatile
  1741                           
  1742                           ;main.c: 177:     SSP1CON2bits.ACKEN = 1;
  1743  01F866  8896               	bsf	150,4,c	;volatile
  1744  01F868                     
  1745                           ;main.c: 178:     I2C1_interruptFlagPolling();
  1746  01F868  EC61  F0FC         	call	_I2C1_interruptFlagPolling	;wreg free
  1747  01F86C  0012               	return		;funcret
  1748  01F86E                     __end_of_I2C1_sendAcknowledge:
  1749                           	callstack 0
  1750                           
  1751 ;; *************** function _I2C1_readData *****************
  1752 ;; Defined at:
  1753 ;;		line 160 in file "main.c"
  1754 ;; Parameters:    Size  Location     Type
  1755 ;;		None
  1756 ;; Auto vars:     Size  Location     Type
  1757 ;;  data            1    0[COMRAM] unsigned char 
  1758 ;; Return value:  Size  Location     Type
  1759 ;;                  1    wreg      unsigned char 
  1760 ;; Registers used:
  1761 ;;		wreg, status,2, cstack
  1762 ;; Tracked objects:
  1763 ;;		On entry : 0/0
  1764 ;;		On exit  : 0/0
  1765 ;;		Unchanged: 0/0
  1766 ;; Data sizes:     COMRAM   BANK0   BANK1   BANK2   BANK3   BANK4   BANK5   BANK6   BANK7   BANK8   BANK9  BANK10  BANK1
      +1  BANK12  BANK13  BANK14
  1767 ;;      Params:         0       0       0       0       0       0       0       0       0       0       0       0       
      +0       0       0       0
  1768 ;;      Locals:         1       0       0       0       0       0       0       0       0       0       0       0       
      +0       0       0       0
  1769 ;;      Temps:          0       0       0       0       0       0       0       0       0       0       0       0       
      +0       0       0       0
  1770 ;;      Totals:         1       0       0       0       0       0       0       0       0       0       0       0       
      +0       0       0       0
  1771 ;;Total ram usage:        1 bytes
  1772 ;; Hardware stack levels used:    1
  1773 ;; Hardware stack levels required when called:    1
  1774 ;; This function calls:
  1775 ;;		_I2C1_interruptFlagPolling
  1776 ;; This function is called by:
  1777 ;;		_I2C1_read2ByteRegister
  1778 ;; This function uses a non-reentrant model
  1779 ;;
  1780                           
  1781                           	psect	text13
  1782  01F878                     __ptext13:
  1783                           	callstack 0
  1784  01F878                     _I2C1_readData:
  1785                           	callstack 28
  1786  01F878                     
  1787                           ;main.c: 162:     I2C1_interruptFlagPolling();
  1788  01F878  EC61  F0FC         	call	_I2C1_interruptFlagPolling	;wreg free
  1789  01F87C                     
  1790                           ;main.c: 163:     uint8_t data = SSP1BUF;
  1791  01F87C  CF91 F001          	movff	3985,I2C1_readData@data	;volatile
  1792  01F880                     
  1793                           ;main.c: 164:     return data;
  1794  01F880  5001               	movf	I2C1_readData@data^0,w,c
  1795  01F882  0012               	return		;funcret
  1796  01F884                     __end_of_I2C1_readData:
  1797                           	callstack 0
  1798                           
  1799 ;; *************** function _I2C1_interruptFlagPolling *****************
  1800 ;; Defined at:
  1801 ;;		line 104 in file "main.c"
  1802 ;; Parameters:    Size  Location     Type
  1803 ;;		None
  1804 ;; Auto vars:     Size  Location     Type
  1805 ;;		None
  1806 ;; Return value:  Size  Location     Type
  1807 ;;                  1    wreg      void 
  1808 ;; Registers used:
  1809 ;;		None
  1810 ;; Tracked objects:
  1811 ;;		On entry : 0/0
  1812 ;;		On exit  : 0/0
  1813 ;;		Unchanged: 0/0
  1814 ;; Data sizes:     COMRAM   BANK0   BANK1   BANK2   BANK3   BANK4   BANK5   BANK6   BANK7   BANK8   BANK9  BANK10  BANK1
      +1  BANK12  BANK13  BANK14
  1815 ;;      Params:         0       0       0       0       0       0       0       0       0       0       0       0       
      +0       0       0       0
  1816 ;;      Locals:         0       0       0       0       0       0       0       0       0       0       0       0       
      +0       0       0       0
  1817 ;;      Temps:          0       0       0       0       0       0       0       0       0       0       0       0       
      +0       0       0       0
  1818 ;;      Totals:         0       0       0       0       0       0       0       0       0       0       0       0       
      +0       0       0       0
  1819 ;;Total ram usage:        0 bytes
  1820 ;; Hardware stack levels used:    1
  1821 ;; This function calls:
  1822 ;;		Nothing
  1823 ;; This function is called by:
  1824 ;;		_I2C1_startCondition
  1825 ;;		_I2C1_stopCondition
  1826 ;;		_I2C1_sendData
  1827 ;;		_I2C1_readData
  1828 ;;		_I2C1_sendAcknowledge
  1829 ;;		_I2C1_sendNotAcknowledge
  1830 ;; This function uses a non-reentrant model
  1831 ;;
  1832                           
  1833                           	psect	text14
  1834  01F8C2                     __ptext14:
  1835                           	callstack 0
  1836  01F8C2                     _I2C1_interruptFlagPolling:
  1837                           	callstack 28
  1838  01F8C2                     l45:
  1839                           
  1840                           ;main.c: 108:     while (!PIR3bits.SSP1IF)
  1841  01F8C2  010E               	movlb	14	; () banked
  1842  01F8C4  A1C8               	btfss	200,0,b	;volatile
  1843  01F8C6  EF67  F0FC         	goto	u11
  1844  01F8CA  EF69  F0FC         	goto	u10
  1845  01F8CE                     u11:
  1846  01F8CE  EF61  F0FC         	goto	l45
  1847  01F8D2                     u10:
  1848  01F8D2                     
  1849                           ; BSR set to: 14
  1850                           ;main.c: 114:     PIR3bits.SSP1IF = 0;
  1851  01F8D2  91C8               	bcf	200,0,b	;volatile
  1852  01F8D4                     
  1853                           ; BSR set to: 14
  1854  01F8D4  0012               	return		;funcret
  1855  01F8D6                     __end_of_I2C1_interruptFlagPolling:
  1856                           	callstack 0
  1857                           
  1858 ;; *************** function _I2C1_open *****************
  1859 ;; Defined at:
  1860 ;;		line 117 in file "main.c"
  1861 ;; Parameters:    Size  Location     Type
  1862 ;;		None
  1863 ;; Auto vars:     Size  Location     Type
  1864 ;;		None
  1865 ;; Return value:  Size  Location     Type
  1866 ;;                  1    wreg      void 
  1867 ;; Registers used:
  1868 ;;		None
  1869 ;; Tracked objects:
  1870 ;;		On entry : 0/0
  1871 ;;		On exit  : 0/0
  1872 ;;		Unchanged: 0/0
  1873 ;; Data sizes:     COMRAM   BANK0   BANK1   BANK2   BANK3   BANK4   BANK5   BANK6   BANK7   BANK8   BANK9  BANK10  BANK1
      +1  BANK12  BANK13  BANK14
  1874 ;;      Params:         0       0       0       0       0       0       0       0       0       0       0       0       
      +0       0       0       0
  1875 ;;      Locals:         0       0       0       0       0       0       0       0       0       0       0       0       
      +0       0       0       0
  1876 ;;      Temps:          0       0       0       0       0       0       0       0       0       0       0       0       
      +0       0       0       0
  1877 ;;      Totals:         0       0       0       0       0       0       0       0       0       0       0       0       
      +0       0       0       0
  1878 ;;Total ram usage:        0 bytes
  1879 ;; Hardware stack levels used:    1
  1880 ;; This function calls:
  1881 ;;		Nothing
  1882 ;; This function is called by:
  1883 ;;		_I2C1_write1ByteRegister
  1884 ;;		_I2C1_read2ByteRegister
  1885 ;; This function uses a non-reentrant model
  1886 ;;
  1887                           
  1888                           	psect	text15
  1889  01F84C                     __ptext15:
  1890                           	callstack 0
  1891  01F84C                     _I2C1_open:
  1892                           	callstack 29
  1893  01F84C                     
  1894                           ;main.c: 120:     PIR3bits.SSP1IF = 0;
  1895  01F84C  010E               	movlb	14	; () banked
  1896  01F84E  91C8               	bcf	200,0,b	;volatile
  1897                           
  1898                           ;main.c: 123:     SSP1CON1bits.SSPEN = 1;
  1899  01F850  8A95               	bsf	149,5,c	;volatile
  1900  01F852                     
  1901                           ; BSR set to: 14
  1902  01F852  0012               	return		;funcret
  1903  01F854                     __end_of_I2C1_open:
  1904                           	callstack 0
  1905                           
  1906 ;; *************** function _I2C1_getAckstatBit *****************
  1907 ;; Defined at:
  1908 ;;		line 167 in file "main.c"
  1909 ;; Parameters:    Size  Location     Type
  1910 ;;		None
  1911 ;; Auto vars:     Size  Location     Type
  1912 ;;		None
  1913 ;; Return value:  Size  Location     Type
  1914 ;;                  1    wreg      unsigned char 
  1915 ;; Registers used:
  1916 ;;		wreg
  1917 ;; Tracked objects:
  1918 ;;		On entry : 0/0
  1919 ;;		On exit  : 0/0
  1920 ;;		Unchanged: 0/0
  1921 ;; Data sizes:     COMRAM   BANK0   BANK1   BANK2   BANK3   BANK4   BANK5   BANK6   BANK7   BANK8   BANK9  BANK10  BANK1
      +1  BANK12  BANK13  BANK14
  1922 ;;      Params:         0       0       0       0       0       0       0       0       0       0       0       0       
      +0       0       0       0
  1923 ;;      Locals:         0       0       0       0       0       0       0       0       0       0       0       0       
      +0       0       0       0
  1924 ;;      Temps:          0       0       0       0       0       0       0       0       0       0       0       0       
      +0       0       0       0
  1925 ;;      Totals:         0       0       0       0       0       0       0       0       0       0       0       0       
      +0       0       0       0
  1926 ;;Total ram usage:        0 bytes
  1927 ;; Hardware stack levels used:    1
  1928 ;; This function calls:
  1929 ;;		Nothing
  1930 ;; This function is called by:
  1931 ;;		_I2C1_write1ByteRegister
  1932 ;;		_I2C1_read2ByteRegister
  1933 ;; This function uses a non-reentrant model
  1934 ;;
  1935                           
  1936                           	psect	text16
  1937  01F8AE                     __ptext16:
  1938                           	callstack 0
  1939  01F8AE                     _I2C1_getAckstatBit:
  1940                           	callstack 29
  1941  01F8AE                     
  1942                           ;main.c: 170:     return SSP1CON2bits.ACKSTAT;
  1943  01F8AE  BC96               	btfsc	150,6,c	;volatile
  1944  01F8B0  EF5C  F0FC         	goto	u21
  1945  01F8B4  EF5F  F0FC         	goto	u20
  1946  01F8B8                     u21:
  1947  01F8B8  0E01               	movlw	1
  1948  01F8BA  EF60  F0FC         	goto	u26
  1949  01F8BE                     u20:
  1950  01F8BE  0E00               	movlw	0
  1951  01F8C0                     u26:
  1952  01F8C0  0012               	return		;funcret
  1953  01F8C2                     __end_of_I2C1_getAckstatBit:
  1954                           	callstack 0
  1955                           
  1956 ;; *************** function _I2C1_close *****************
  1957 ;; Defined at:
  1958 ;;		line 126 in file "main.c"
  1959 ;; Parameters:    Size  Location     Type
  1960 ;;		None
  1961 ;; Auto vars:     Size  Location     Type
  1962 ;;		None
  1963 ;; Return value:  Size  Location     Type
  1964 ;;                  1    wreg      void 
  1965 ;; Registers used:
  1966 ;;		None
  1967 ;; Tracked objects:
  1968 ;;		On entry : 0/0
  1969 ;;		On exit  : 0/0
  1970 ;;		Unchanged: 0/0
  1971 ;; Data sizes:     COMRAM   BANK0   BANK1   BANK2   BANK3   BANK4   BANK5   BANK6   BANK7   BANK8   BANK9  BANK10  BANK1
      +1  BANK12  BANK13  BANK14
  1972 ;;      Params:         0       0       0       0       0       0       0       0       0       0       0       0       
      +0       0       0       0
  1973 ;;      Locals:         0       0       0       0       0       0       0       0       0       0       0       0       
      +0       0       0       0
  1974 ;;      Temps:          0       0       0       0       0       0       0       0       0       0       0       0       
      +0       0       0       0
  1975 ;;      Totals:         0       0       0       0       0       0       0       0       0       0       0       0       
      +0       0       0       0
  1976 ;;Total ram usage:        0 bytes
  1977 ;; Hardware stack levels used:    1
  1978 ;; This function calls:
  1979 ;;		Nothing
  1980 ;; This function is called by:
  1981 ;;		_I2C1_write1ByteRegister
  1982 ;;		_I2C1_read2ByteRegister
  1983 ;; This function uses a non-reentrant model
  1984 ;;
  1985                           
  1986                           	psect	text17
  1987  01F836                     __ptext17:
  1988                           	callstack 0
  1989  01F836                     _I2C1_close:
  1990                           	callstack 29
  1991  01F836                     
  1992                           ;main.c: 129:     SSP1CON1bits.SSPEN = 0;
  1993  01F836  9A95               	bcf	149,5,c	;volatile
  1994  01F838  0012               	return		;funcret
  1995  01F83A                     __end_of_I2C1_close:
  1996                           	callstack 0
  1997                           
  1998 ;; *************** function _I2C1_Initialize *****************
  1999 ;; Defined at:
  2000 ;;		line 95 in file "main.c"
  2001 ;; Parameters:    Size  Location     Type
  2002 ;;		None
  2003 ;; Auto vars:     Size  Location     Type
  2004 ;;		None
  2005 ;; Return value:  Size  Location     Type
  2006 ;;                  1    wreg      void 
  2007 ;; Registers used:
  2008 ;;		wreg, status,2
  2009 ;; Tracked objects:
  2010 ;;		On entry : 0/0
  2011 ;;		On exit  : 0/0
  2012 ;;		Unchanged: 0/0
  2013 ;; Data sizes:     COMRAM   BANK0   BANK1   BANK2   BANK3   BANK4   BANK5   BANK6   BANK7   BANK8   BANK9  BANK10  BANK1
      +1  BANK12  BANK13  BANK14
  2014 ;;      Params:         0       0       0       0       0       0       0       0       0       0       0       0       
      +0       0       0       0
  2015 ;;      Locals:         0       0       0       0       0       0       0       0       0       0       0       0       
      +0       0       0       0
  2016 ;;      Temps:          0       0       0       0       0       0       0       0       0       0       0       0       
      +0       0       0       0
  2017 ;;      Totals:         0       0       0       0       0       0       0       0       0       0       0       0       
      +0       0       0       0
  2018 ;;Total ram usage:        0 bytes
  2019 ;; Hardware stack levels used:    1
  2020 ;; This function calls:
  2021 ;;		Nothing
  2022 ;; This function is called by:
  2023 ;;		_main
  2024 ;; This function uses a non-reentrant model
  2025 ;;
  2026                           
  2027                           	psect	text18
  2028  01F844                     __ptext18:
  2029                           	callstack 0
  2030  01F844                     _I2C1_Initialize:
  2031                           	callstack 30
  2032  01F844                     
  2033                           ;main.c: 98:     SSP1CON1bits.SSPM3 = 1;
  2034  01F844  8695               	bsf	149,3,c	;volatile
  2035  01F846                     
  2036                           ;main.c: 101:     SSP1ADD = 0x09;
  2037  01F846  0E09               	movlw	9
  2038  01F848  6E92               	movwf	146,c	;volatile
  2039  01F84A  0012               	return		;funcret
  2040  01F84C                     __end_of_I2C1_Initialize:
  2041                           	callstack 0
  2042                           
  2043 ;; *************** function _CLK_Initialize *****************
  2044 ;; Defined at:
  2045 ;;		line 60 in file "main.c"
  2046 ;; Parameters:    Size  Location     Type
  2047 ;;		None
  2048 ;; Auto vars:     Size  Location     Type
  2049 ;;		None
  2050 ;; Return value:  Size  Location     Type
  2051 ;;                  1    wreg      void 
  2052 ;; Registers used:
  2053 ;;		wreg, status,2
  2054 ;; Tracked objects:
  2055 ;;		On entry : 0/0
  2056 ;;		On exit  : 0/0
  2057 ;;		Unchanged: 0/0
  2058 ;; Data sizes:     COMRAM   BANK0   BANK1   BANK2   BANK3   BANK4   BANK5   BANK6   BANK7   BANK8   BANK9  BANK10  BANK1
      +1  BANK12  BANK13  BANK14
  2059 ;;      Params:         0       0       0       0       0       0       0       0       0       0       0       0       
      +0       0       0       0
  2060 ;;      Locals:         0       0       0       0       0       0       0       0       0       0       0       0       
      +0       0       0       0
  2061 ;;      Temps:          0       0       0       0       0       0       0       0       0       0       0       0       
      +0       0       0       0
  2062 ;;      Totals:         0       0       0       0       0       0       0       0       0       0       0       0       
      +0       0       0       0
  2063 ;;Total ram usage:        0 bytes
  2064 ;; Hardware stack levels used:    1
  2065 ;; This function calls:
  2066 ;;		Nothing
  2067 ;; This function is called by:
  2068 ;;		_main
  2069 ;; This function uses a non-reentrant model
  2070 ;;
  2071                           
  2072                           	psect	text19
  2073  01F890                     __ptext19:
  2074                           	callstack 0
  2075  01F890                     _CLK_Initialize:
  2076                           	callstack 30
  2077  01F890                     
  2078                           ;main.c: 63:     OSCCON1bits.NOSC = 0x6;
  2079  01F890  010E               	movlb	14	; () banked
  2080  01F892  51D3               	movf	211,w,b	;volatile
  2081  01F894  0B8F               	andlw	-113
  2082  01F896  0960               	iorlw	96
  2083  01F898  6FD3               	movwf	211,b	;volatile
  2084  01F89A                     
  2085                           ; BSR set to: 14
  2086                           ;main.c: 66:     OSCFRQbits.FRQ1 = 1;
  2087  01F89A  83D9               	bsf	217,1,b	;volatile
  2088  01F89C                     
  2089                           ; BSR set to: 14
  2090  01F89C  0012               	return		;funcret
  2091  01F89E                     __end_of_CLK_Initialize:
  2092                           	callstack 0
  2093  0000                     
  2094                           	psect	rparam
  2095  0000                     
  2096                           	psect	idloc
  2097                           
  2098                           ;Config register IDLOC0 @ 0x200000
  2099                           ;	unspecified, using default values
  2100  200000                     	org	2097152
  2101  200000  FFFF               	dw	65535
  2102                           
  2103                           ;Config register IDLOC1 @ 0x200002
  2104                           ;	unspecified, using default values
  2105  200002                     	org	2097154
  2106  200002  FFFF               	dw	65535
  2107                           
  2108                           ;Config register IDLOC2 @ 0x200004
  2109                           ;	unspecified, using default values
  2110  200004                     	org	2097156
  2111  200004  FFFF               	dw	65535
  2112                           
  2113                           ;Config register IDLOC3 @ 0x200006
  2114                           ;	unspecified, using default values
  2115  200006                     	org	2097158
  2116  200006  FFFF               	dw	65535
  2117                           
  2118                           ;Config register IDLOC4 @ 0x200008
  2119                           ;	unspecified, using default values
  2120  200008                     	org	2097160
  2121  200008  FFFF               	dw	65535
  2122                           
  2123                           ;Config register IDLOC5 @ 0x20000A
  2124                           ;	unspecified, using default values
  2125  20000A                     	org	2097162
  2126  20000A  FFFF               	dw	65535
  2127                           
  2128                           ;Config register IDLOC6 @ 0x20000C
  2129                           ;	unspecified, using default values
  2130  20000C                     	org	2097164
  2131  20000C  FFFF               	dw	65535
  2132                           
  2133                           ;Config register IDLOC7 @ 0x20000E
  2134                           ;	unspecified, using default values
  2135  20000E                     	org	2097166
  2136  20000E  FFFF               	dw	65535
  2137                           
  2138                           ;Config register IDLOC8 @ 0x200010
  2139                           ;	unspecified, using default values
  2140  200010                     	org	2097168
  2141  200010  FFFF               	dw	65535
  2142                           
  2143                           ;Config register IDLOC9 @ 0x200012
  2144                           ;	unspecified, using default values
  2145  200012                     	org	2097170
  2146  200012  FFFF               	dw	65535
  2147                           
  2148                           ;Config register IDLOC10 @ 0x200014
  2149                           ;	unspecified, using default values
  2150  200014                     	org	2097172
  2151  200014  FFFF               	dw	65535
  2152                           
  2153                           ;Config register IDLOC11 @ 0x200016
  2154                           ;	unspecified, using default values
  2155  200016                     	org	2097174
  2156  200016  FFFF               	dw	65535
  2157                           
  2158                           ;Config register IDLOC12 @ 0x200018
  2159                           ;	unspecified, using default values
  2160  200018                     	org	2097176
  2161  200018  FFFF               	dw	65535
  2162                           
  2163                           ;Config register IDLOC13 @ 0x20001A
  2164                           ;	unspecified, using default values
  2165  20001A                     	org	2097178
  2166  20001A  FFFF               	dw	65535
  2167                           
  2168                           ;Config register IDLOC14 @ 0x20001C
  2169                           ;	unspecified, using default values
  2170  20001C                     	org	2097180
  2171  20001C  FFFF               	dw	65535
  2172                           
  2173                           ;Config register IDLOC15 @ 0x20001E
  2174                           ;	unspecified, using default values
  2175  20001E                     	org	2097182
  2176  20001E  FFFF               	dw	65535
  2177                           
  2178                           ;Config register IDLOC16 @ 0x200020
  2179                           ;	unspecified, using default values
  2180  200020                     	org	2097184
  2181  200020  FFFF               	dw	65535
  2182                           
  2183                           ;Config register IDLOC17 @ 0x200022
  2184                           ;	unspecified, using default values
  2185  200022                     	org	2097186
  2186  200022  FFFF               	dw	65535
  2187                           
  2188                           ;Config register IDLOC18 @ 0x200024
  2189                           ;	unspecified, using default values
  2190  200024                     	org	2097188
  2191  200024  FFFF               	dw	65535
  2192                           
  2193                           ;Config register IDLOC19 @ 0x200026
  2194                           ;	unspecified, using default values
  2195  200026                     	org	2097190
  2196  200026  FFFF               	dw	65535
  2197                           
  2198                           ;Config register IDLOC20 @ 0x200028
  2199                           ;	unspecified, using default values
  2200  200028                     	org	2097192
  2201  200028  FFFF               	dw	65535
  2202                           
  2203                           ;Config register IDLOC21 @ 0x20002A
  2204                           ;	unspecified, using default values
  2205  20002A                     	org	2097194
  2206  20002A  FFFF               	dw	65535
  2207                           
  2208                           ;Config register IDLOC22 @ 0x20002C
  2209                           ;	unspecified, using default values
  2210  20002C                     	org	2097196
  2211  20002C  FFFF               	dw	65535
  2212                           
  2213                           ;Config register IDLOC23 @ 0x20002E
  2214                           ;	unspecified, using default values
  2215  20002E                     	org	2097198
  2216  20002E  FFFF               	dw	65535
  2217                           
  2218                           ;Config register IDLOC24 @ 0x200030
  2219                           ;	unspecified, using default values
  2220  200030                     	org	2097200
  2221  200030  FFFF               	dw	65535
  2222                           
  2223                           ;Config register IDLOC25 @ 0x200032
  2224                           ;	unspecified, using default values
  2225  200032                     	org	2097202
  2226  200032  FFFF               	dw	65535
  2227                           
  2228                           ;Config register IDLOC26 @ 0x200034
  2229                           ;	unspecified, using default values
  2230  200034                     	org	2097204
  2231  200034  FFFF               	dw	65535
  2232                           
  2233                           ;Config register IDLOC27 @ 0x200036
  2234                           ;	unspecified, using default values
  2235  200036                     	org	2097206
  2236  200036  FFFF               	dw	65535
  2237                           
  2238                           ;Config register IDLOC28 @ 0x200038
  2239                           ;	unspecified, using default values
  2240  200038                     	org	2097208
  2241  200038  FFFF               	dw	65535
  2242                           
  2243                           ;Config register IDLOC29 @ 0x20003A
  2244                           ;	unspecified, using default values
  2245  20003A                     	org	2097210
  2246  20003A  FFFF               	dw	65535
  2247                           
  2248                           ;Config register IDLOC30 @ 0x20003C
  2249                           ;	unspecified, using default values
  2250  20003C                     	org	2097212
  2251  20003C  FFFF               	dw	65535
  2252                           
  2253                           ;Config register IDLOC31 @ 0x20003E
  2254                           ;	unspecified, using default values
  2255  20003E                     	org	2097214
  2256  20003E  FFFF               	dw	65535
  2257                           
  2258                           ;Config register IDLOC32 @ 0x200040
  2259                           ;	unspecified, using default values
  2260  200040                     	org	2097216
  2261  200040  FFFF               	dw	65535
  2262                           
  2263                           ;Config register IDLOC33 @ 0x200042
  2264                           ;	unspecified, using default values
  2265  200042                     	org	2097218
  2266  200042  FFFF               	dw	65535
  2267                           
  2268                           ;Config register IDLOC34 @ 0x200044
  2269                           ;	unspecified, using default values
  2270  200044                     	org	2097220
  2271  200044  FFFF               	dw	65535
  2272                           
  2273                           ;Config register IDLOC35 @ 0x200046
  2274                           ;	unspecified, using default values
  2275  200046                     	org	2097222
  2276  200046  FFFF               	dw	65535
  2277                           
  2278                           ;Config register IDLOC36 @ 0x200048
  2279                           ;	unspecified, using default values
  2280  200048                     	org	2097224
  2281  200048  FFFF               	dw	65535
  2282                           
  2283                           ;Config register IDLOC37 @ 0x20004A
  2284                           ;	unspecified, using default values
  2285  20004A                     	org	2097226
  2286  20004A  FFFF               	dw	65535
  2287                           
  2288                           ;Config register IDLOC38 @ 0x20004C
  2289                           ;	unspecified, using default values
  2290  20004C                     	org	2097228
  2291  20004C  FFFF               	dw	65535
  2292                           
  2293                           ;Config register IDLOC39 @ 0x20004E
  2294                           ;	unspecified, using default values
  2295  20004E                     	org	2097230
  2296  20004E  FFFF               	dw	65535
  2297                           
  2298                           ;Config register IDLOC40 @ 0x200050
  2299                           ;	unspecified, using default values
  2300  200050                     	org	2097232
  2301  200050  FFFF               	dw	65535
  2302                           
  2303                           ;Config register IDLOC41 @ 0x200052
  2304                           ;	unspecified, using default values
  2305  200052                     	org	2097234
  2306  200052  FFFF               	dw	65535
  2307                           
  2308                           ;Config register IDLOC42 @ 0x200054
  2309                           ;	unspecified, using default values
  2310  200054                     	org	2097236
  2311  200054  FFFF               	dw	65535
  2312                           
  2313                           ;Config register IDLOC43 @ 0x200056
  2314                           ;	unspecified, using default values
  2315  200056                     	org	2097238
  2316  200056  FFFF               	dw	65535
  2317                           
  2318                           ;Config register IDLOC44 @ 0x200058
  2319                           ;	unspecified, using default values
  2320  200058                     	org	2097240
  2321  200058  FFFF               	dw	65535
  2322                           
  2323                           ;Config register IDLOC45 @ 0x20005A
  2324                           ;	unspecified, using default values
  2325  20005A                     	org	2097242
  2326  20005A  FFFF               	dw	65535
  2327                           
  2328                           ;Config register IDLOC46 @ 0x20005C
  2329                           ;	unspecified, using default values
  2330  20005C                     	org	2097244
  2331  20005C  FFFF               	dw	65535
  2332                           
  2333                           ;Config register IDLOC47 @ 0x20005E
  2334                           ;	unspecified, using default values
  2335  20005E                     	org	2097246
  2336  20005E  FFFF               	dw	65535
  2337                           
  2338                           ;Config register IDLOC48 @ 0x200060
  2339                           ;	unspecified, using default values
  2340  200060                     	org	2097248
  2341  200060  FFFF               	dw	65535
  2342                           
  2343                           ;Config register IDLOC49 @ 0x200062
  2344                           ;	unspecified, using default values
  2345  200062                     	org	2097250
  2346  200062  FFFF               	dw	65535
  2347                           
  2348                           ;Config register IDLOC50 @ 0x200064
  2349                           ;	unspecified, using default values
  2350  200064                     	org	2097252
  2351  200064  FFFF               	dw	65535
  2352                           
  2353                           ;Config register IDLOC51 @ 0x200066
  2354                           ;	unspecified, using default values
  2355  200066                     	org	2097254
  2356  200066  FFFF               	dw	65535
  2357                           
  2358                           ;Config register IDLOC52 @ 0x200068
  2359                           ;	unspecified, using default values
  2360  200068                     	org	2097256
  2361  200068  FFFF               	dw	65535
  2362                           
  2363                           ;Config register IDLOC53 @ 0x20006A
  2364                           ;	unspecified, using default values
  2365  20006A                     	org	2097258
  2366  20006A  FFFF               	dw	65535
  2367                           
  2368                           ;Config register IDLOC54 @ 0x20006C
  2369                           ;	unspecified, using default values
  2370  20006C                     	org	2097260
  2371  20006C  FFFF               	dw	65535
  2372                           
  2373                           ;Config register IDLOC55 @ 0x20006E
  2374                           ;	unspecified, using default values
  2375  20006E                     	org	2097262
  2376  20006E  FFFF               	dw	65535
  2377                           
  2378                           ;Config register IDLOC56 @ 0x200070
  2379                           ;	unspecified, using default values
  2380  200070                     	org	2097264
  2381  200070  FFFF               	dw	65535
  2382                           
  2383                           ;Config register IDLOC57 @ 0x200072
  2384                           ;	unspecified, using default values
  2385  200072                     	org	2097266
  2386  200072  FFFF               	dw	65535
  2387                           
  2388                           ;Config register IDLOC58 @ 0x200074
  2389                           ;	unspecified, using default values
  2390  200074                     	org	2097268
  2391  200074  FFFF               	dw	65535
  2392                           
  2393                           ;Config register IDLOC59 @ 0x200076
  2394                           ;	unspecified, using default values
  2395  200076                     	org	2097270
  2396  200076  FFFF               	dw	65535
  2397                           
  2398                           ;Config register IDLOC60 @ 0x200078
  2399                           ;	unspecified, using default values
  2400  200078                     	org	2097272
  2401  200078  FFFF               	dw	65535
  2402                           
  2403                           ;Config register IDLOC61 @ 0x20007A
  2404                           ;	unspecified, using default values
  2405  20007A                     	org	2097274
  2406  20007A  FFFF               	dw	65535
  2407                           
  2408                           ;Config register IDLOC62 @ 0x20007C
  2409                           ;	unspecified, using default values
  2410  20007C                     	org	2097276
  2411  20007C  FFFF               	dw	65535
  2412                           
  2413                           ;Config register IDLOC63 @ 0x20007E
  2414                           ;	unspecified, using default values
  2415  20007E                     	org	2097278
  2416  20007E  FFFF               	dw	65535
  2417                           
  2418                           ;Config register IDLOC64 @ 0x200080
  2419                           ;	unspecified, using default values
  2420  200080                     	org	2097280
  2421  200080  FFFF               	dw	65535
  2422                           
  2423                           ;Config register IDLOC65 @ 0x200082
  2424                           ;	unspecified, using default values
  2425  200082                     	org	2097282
  2426  200082  FFFF               	dw	65535
  2427                           
  2428                           ;Config register IDLOC66 @ 0x200084
  2429                           ;	unspecified, using default values
  2430  200084                     	org	2097284
  2431  200084  FFFF               	dw	65535
  2432                           
  2433                           ;Config register IDLOC67 @ 0x200086
  2434                           ;	unspecified, using default values
  2435  200086                     	org	2097286
  2436  200086  FFFF               	dw	65535
  2437                           
  2438                           ;Config register IDLOC68 @ 0x200088
  2439                           ;	unspecified, using default values
  2440  200088                     	org	2097288
  2441  200088  FFFF               	dw	65535
  2442                           
  2443                           ;Config register IDLOC69 @ 0x20008A
  2444                           ;	unspecified, using default values
  2445  20008A                     	org	2097290
  2446  20008A  FFFF               	dw	65535
  2447                           
  2448                           ;Config register IDLOC70 @ 0x20008C
  2449                           ;	unspecified, using default values
  2450  20008C                     	org	2097292
  2451  20008C  FFFF               	dw	65535
  2452                           
  2453                           ;Config register IDLOC71 @ 0x20008E
  2454                           ;	unspecified, using default values
  2455  20008E                     	org	2097294
  2456  20008E  FFFF               	dw	65535
  2457                           
  2458                           ;Config register IDLOC72 @ 0x200090
  2459                           ;	unspecified, using default values
  2460  200090                     	org	2097296
  2461  200090  FFFF               	dw	65535
  2462                           
  2463                           ;Config register IDLOC73 @ 0x200092
  2464                           ;	unspecified, using default values
  2465  200092                     	org	2097298
  2466  200092  FFFF               	dw	65535
  2467                           
  2468                           ;Config register IDLOC74 @ 0x200094
  2469                           ;	unspecified, using default values
  2470  200094                     	org	2097300
  2471  200094  FFFF               	dw	65535
  2472                           
  2473                           ;Config register IDLOC75 @ 0x200096
  2474                           ;	unspecified, using default values
  2475  200096                     	org	2097302
  2476  200096  FFFF               	dw	65535
  2477                           
  2478                           ;Config register IDLOC76 @ 0x200098
  2479                           ;	unspecified, using default values
  2480  200098                     	org	2097304
  2481  200098  FFFF               	dw	65535
  2482                           
  2483                           ;Config register IDLOC77 @ 0x20009A
  2484                           ;	unspecified, using default values
  2485  20009A                     	org	2097306
  2486  20009A  FFFF               	dw	65535
  2487                           
  2488                           ;Config register IDLOC78 @ 0x20009C
  2489                           ;	unspecified, using default values
  2490  20009C                     	org	2097308
  2491  20009C  FFFF               	dw	65535
  2492                           
  2493                           ;Config register IDLOC79 @ 0x20009E
  2494                           ;	unspecified, using default values
  2495  20009E                     	org	2097310
  2496  20009E  FFFF               	dw	65535
  2497                           
  2498                           ;Config register IDLOC80 @ 0x2000A0
  2499                           ;	unspecified, using default values
  2500  2000A0                     	org	2097312
  2501  2000A0  FFFF               	dw	65535
  2502                           
  2503                           ;Config register IDLOC81 @ 0x2000A2
  2504                           ;	unspecified, using default values
  2505  2000A2                     	org	2097314
  2506  2000A2  FFFF               	dw	65535
  2507                           
  2508                           ;Config register IDLOC82 @ 0x2000A4
  2509                           ;	unspecified, using default values
  2510  2000A4                     	org	2097316
  2511  2000A4  FFFF               	dw	65535
  2512                           
  2513                           ;Config register IDLOC83 @ 0x2000A6
  2514                           ;	unspecified, using default values
  2515  2000A6                     	org	2097318
  2516  2000A6  FFFF               	dw	65535
  2517                           
  2518                           ;Config register IDLOC84 @ 0x2000A8
  2519                           ;	unspecified, using default values
  2520  2000A8                     	org	2097320
  2521  2000A8  FFFF               	dw	65535
  2522                           
  2523                           ;Config register IDLOC85 @ 0x2000AA
  2524                           ;	unspecified, using default values
  2525  2000AA                     	org	2097322
  2526  2000AA  FFFF               	dw	65535
  2527                           
  2528                           ;Config register IDLOC86 @ 0x2000AC
  2529                           ;	unspecified, using default values
  2530  2000AC                     	org	2097324
  2531  2000AC  FFFF               	dw	65535
  2532                           
  2533                           ;Config register IDLOC87 @ 0x2000AE
  2534                           ;	unspecified, using default values
  2535  2000AE                     	org	2097326
  2536  2000AE  FFFF               	dw	65535
  2537                           
  2538                           ;Config register IDLOC88 @ 0x2000B0
  2539                           ;	unspecified, using default values
  2540  2000B0                     	org	2097328
  2541  2000B0  FFFF               	dw	65535
  2542                           
  2543                           ;Config register IDLOC89 @ 0x2000B2
  2544                           ;	unspecified, using default values
  2545  2000B2                     	org	2097330
  2546  2000B2  FFFF               	dw	65535
  2547                           
  2548                           ;Config register IDLOC90 @ 0x2000B4
  2549                           ;	unspecified, using default values
  2550  2000B4                     	org	2097332
  2551  2000B4  FFFF               	dw	65535
  2552                           
  2553                           ;Config register IDLOC91 @ 0x2000B6
  2554                           ;	unspecified, using default values
  2555  2000B6                     	org	2097334
  2556  2000B6  FFFF               	dw	65535
  2557                           
  2558                           ;Config register IDLOC92 @ 0x2000B8
  2559                           ;	unspecified, using default values
  2560  2000B8                     	org	2097336
  2561  2000B8  FFFF               	dw	65535
  2562                           
  2563                           ;Config register IDLOC93 @ 0x2000BA
  2564                           ;	unspecified, using default values
  2565  2000BA                     	org	2097338
  2566  2000BA  FFFF               	dw	65535
  2567                           
  2568                           ;Config register IDLOC94 @ 0x2000BC
  2569                           ;	unspecified, using default values
  2570  2000BC                     	org	2097340
  2571  2000BC  FFFF               	dw	65535
  2572                           
  2573                           ;Config register IDLOC95 @ 0x2000BE
  2574                           ;	unspecified, using default values
  2575  2000BE                     	org	2097342
  2576  2000BE  FFFF               	dw	65535
  2577                           
  2578                           ;Config register IDLOC96 @ 0x2000C0
  2579                           ;	unspecified, using default values
  2580  2000C0                     	org	2097344
  2581  2000C0  FFFF               	dw	65535
  2582                           
  2583                           ;Config register IDLOC97 @ 0x2000C2
  2584                           ;	unspecified, using default values
  2585  2000C2                     	org	2097346
  2586  2000C2  FFFF               	dw	65535
  2587                           
  2588                           ;Config register IDLOC98 @ 0x2000C4
  2589                           ;	unspecified, using default values
  2590  2000C4                     	org	2097348
  2591  2000C4  FFFF               	dw	65535
  2592                           
  2593                           ;Config register IDLOC99 @ 0x2000C6
  2594                           ;	unspecified, using default values
  2595  2000C6                     	org	2097350
  2596  2000C6  FFFF               	dw	65535
  2597                           
  2598                           ;Config register IDLOC100 @ 0x2000C8
  2599                           ;	unspecified, using default values
  2600  2000C8                     	org	2097352
  2601  2000C8  FFFF               	dw	65535
  2602                           
  2603                           ;Config register IDLOC101 @ 0x2000CA
  2604                           ;	unspecified, using default values
  2605  2000CA                     	org	2097354
  2606  2000CA  FFFF               	dw	65535
  2607                           
  2608                           ;Config register IDLOC102 @ 0x2000CC
  2609                           ;	unspecified, using default values
  2610  2000CC                     	org	2097356
  2611  2000CC  FFFF               	dw	65535
  2612                           
  2613                           ;Config register IDLOC103 @ 0x2000CE
  2614                           ;	unspecified, using default values
  2615  2000CE                     	org	2097358
  2616  2000CE  FFFF               	dw	65535
  2617                           
  2618                           ;Config register IDLOC104 @ 0x2000D0
  2619                           ;	unspecified, using default values
  2620  2000D0                     	org	2097360
  2621  2000D0  FFFF               	dw	65535
  2622                           
  2623                           ;Config register IDLOC105 @ 0x2000D2
  2624                           ;	unspecified, using default values
  2625  2000D2                     	org	2097362
  2626  2000D2  FFFF               	dw	65535
  2627                           
  2628                           ;Config register IDLOC106 @ 0x2000D4
  2629                           ;	unspecified, using default values
  2630  2000D4                     	org	2097364
  2631  2000D4  FFFF               	dw	65535
  2632                           
  2633                           ;Config register IDLOC107 @ 0x2000D6
  2634                           ;	unspecified, using default values
  2635  2000D6                     	org	2097366
  2636  2000D6  FFFF               	dw	65535
  2637                           
  2638                           ;Config register IDLOC108 @ 0x2000D8
  2639                           ;	unspecified, using default values
  2640  2000D8                     	org	2097368
  2641  2000D8  FFFF               	dw	65535
  2642                           
  2643                           ;Config register IDLOC109 @ 0x2000DA
  2644                           ;	unspecified, using default values
  2645  2000DA                     	org	2097370
  2646  2000DA  FFFF               	dw	65535
  2647                           
  2648                           ;Config register IDLOC110 @ 0x2000DC
  2649                           ;	unspecified, using default values
  2650  2000DC                     	org	2097372
  2651  2000DC  FFFF               	dw	65535
  2652                           
  2653                           ;Config register IDLOC111 @ 0x2000DE
  2654                           ;	unspecified, using default values
  2655  2000DE                     	org	2097374
  2656  2000DE  FFFF               	dw	65535
  2657                           
  2658                           ;Config register IDLOC112 @ 0x2000E0
  2659                           ;	unspecified, using default values
  2660  2000E0                     	org	2097376
  2661  2000E0  FFFF               	dw	65535
  2662                           
  2663                           ;Config register IDLOC113 @ 0x2000E2
  2664                           ;	unspecified, using default values
  2665  2000E2                     	org	2097378
  2666  2000E2  FFFF               	dw	65535
  2667                           
  2668                           ;Config register IDLOC114 @ 0x2000E4
  2669                           ;	unspecified, using default values
  2670  2000E4                     	org	2097380
  2671  2000E4  FFFF               	dw	65535
  2672                           
  2673                           ;Config register IDLOC115 @ 0x2000E6
  2674                           ;	unspecified, using default values
  2675  2000E6                     	org	2097382
  2676  2000E6  FFFF               	dw	65535
  2677                           
  2678                           ;Config register IDLOC116 @ 0x2000E8
  2679                           ;	unspecified, using default values
  2680  2000E8                     	org	2097384
  2681  2000E8  FFFF               	dw	65535
  2682                           
  2683                           ;Config register IDLOC117 @ 0x2000EA
  2684                           ;	unspecified, using default values
  2685  2000EA                     	org	2097386
  2686  2000EA  FFFF               	dw	65535
  2687                           
  2688                           ;Config register IDLOC118 @ 0x2000EC
  2689                           ;	unspecified, using default values
  2690  2000EC                     	org	2097388
  2691  2000EC  FFFF               	dw	65535
  2692                           
  2693                           ;Config register IDLOC119 @ 0x2000EE
  2694                           ;	unspecified, using default values
  2695  2000EE                     	org	2097390
  2696  2000EE  FFFF               	dw	65535
  2697                           
  2698                           ;Config register IDLOC120 @ 0x2000F0
  2699                           ;	unspecified, using default values
  2700  2000F0                     	org	2097392
  2701  2000F0  FFFF               	dw	65535
  2702                           
  2703                           ;Config register IDLOC121 @ 0x2000F2
  2704                           ;	unspecified, using default values
  2705  2000F2                     	org	2097394
  2706  2000F2  FFFF               	dw	65535
  2707                           
  2708                           ;Config register IDLOC122 @ 0x2000F4
  2709                           ;	unspecified, using default values
  2710  2000F4                     	org	2097396
  2711  2000F4  FFFF               	dw	65535
  2712                           
  2713                           ;Config register IDLOC123 @ 0x2000F6
  2714                           ;	unspecified, using default values
  2715  2000F6                     	org	2097398
  2716  2000F6  FFFF               	dw	65535
  2717                           
  2718                           ;Config register IDLOC124 @ 0x2000F8
  2719                           ;	unspecified, using default values
  2720  2000F8                     	org	2097400
  2721  2000F8  FFFF               	dw	65535
  2722                           
  2723                           ;Config register IDLOC125 @ 0x2000FA
  2724                           ;	unspecified, using default values
  2725  2000FA                     	org	2097402
  2726  2000FA  FFFF               	dw	65535
  2727                           
  2728                           ;Config register IDLOC126 @ 0x2000FC
  2729                           ;	unspecified, using default values
  2730  2000FC                     	org	2097404
  2731  2000FC  FFFF               	dw	65535
  2732                           
  2733                           ;Config register IDLOC127 @ 0x2000FE
  2734                           ;	unspecified, using default values
  2735  2000FE                     	org	2097406
  2736  2000FE  FFFF               	dw	65535
  2737                           
  2738                           	psect	config
  2739                           
  2740                           ;Config register CONFIG1L @ 0x300000
  2741                           ;	unspecified, using default values
  2742                           ;	External Oscillator mode Selection bits
  2743                           ;	FEXTOSC = 0x7, unprogrammed default
  2744                           ;	Power-up default value for COSC bits
  2745                           ;	RSTOSC = 0x7, unprogrammed default
  2746  300000                     	org	3145728
  2747  300000  FF                 	db	255
  2748                           
  2749                           ;Config register CONFIG1H @ 0x300001
  2750                           ;	unspecified, using default values
  2751                           ;	Clock Out Enable bit
  2752                           ;	CLKOUTEN = 0x1, unprogrammed default
  2753                           ;	Clock Switch Enable bit
  2754                           ;	CSWEN = 0x1, unprogrammed default
  2755                           ;	Fail-Safe Clock Monitor Enable bit
  2756                           ;	FCMEN = 0x1, unprogrammed default
  2757  300001                     	org	3145729
  2758  300001  FF                 	db	255
  2759                           
  2760                           ;Config register CONFIG2L @ 0x300002
  2761                           ;	unspecified, using default values
  2762                           ;	Master Clear Enable bit
  2763                           ;	MCLRE = 0x1, unprogrammed default
  2764                           ;	Power-up Timer Enable bit
  2765                           ;	PWRTE = 0x1, unprogrammed default
  2766                           ;	Low-power BOR enable bit
  2767                           ;	LPBOREN = 0x1, unprogrammed default
  2768                           ;	Brown-out Reset Enable bits
  2769                           ;	BOREN = 0x3, unprogrammed default
  2770  300002                     	org	3145730
  2771  300002  FF                 	db	255
  2772                           
  2773                           ;Config register CONFIG2H @ 0x300003
  2774                           ;	unspecified, using default values
  2775                           ;	Brown Out Reset Voltage selection bits
  2776                           ;	BORV = 0x3, unprogrammed default
  2777                           ;	ZCD Disable bit
  2778                           ;	ZCD = 0x1, unprogrammed default
  2779                           ;	PPSLOCK bit One-Way Set Enable bit
  2780                           ;	PPS1WAY = 0x1, unprogrammed default
  2781                           ;	Stack Full/Underflow Reset Enable bit
  2782                           ;	STVREN = 0x1, unprogrammed default
  2783                           ;	Extended Instruction Set Enable bit
  2784                           ;	XINST = 0x1, unprogrammed default
  2785  300003                     	org	3145731
  2786  300003  FF                 	db	255
  2787                           
  2788                           ;Config register CONFIG3L @ 0x300004
  2789                           ;	WDT Period Select bits
  2790                           ;	WDTCPS = 0x1F, unprogrammed default
  2791                           ;	WDT operating mode
  2792                           ;	WDTE = OFF, WDT Disabled
  2793  300004                     	org	3145732
  2794  300004  9F                 	db	159
  2795                           
  2796                           ;Config register CONFIG3H @ 0x300005
  2797                           ;	unspecified, using default values
  2798                           ;	WDT Window Select bits
  2799                           ;	WDTCWS = 0x7, unprogrammed default
  2800                           ;	WDT input clock selector
  2801                           ;	WDTCCS = 0x7, unprogrammed default
  2802  300005                     	org	3145733
  2803  300005  FF                 	db	255
  2804                           
  2805                           ;Config register CONFIG4L @ 0x300006
  2806                           ;	unspecified, using default values
  2807                           ;	Write Protection Block 0
  2808                           ;	WRT0 = 0x1, unprogrammed default
  2809                           ;	Write Protection Block 1
  2810                           ;	WRT1 = 0x1, unprogrammed default
  2811                           ;	Write Protection Block 2
  2812                           ;	WRT2 = 0x1, unprogrammed default
  2813                           ;	Write Protection Block 3
  2814                           ;	WRT3 = 0x1, unprogrammed default
  2815                           ;	Write Protection Block 4
  2816                           ;	WRT4 = 0x1, unprogrammed default
  2817                           ;	Write Protection Block 5
  2818                           ;	WRT5 = 0x1, unprogrammed default
  2819                           ;	Write Protection Block 6
  2820                           ;	WRT6 = 0x1, unprogrammed default
  2821                           ;	Write Protection Block 7
  2822                           ;	WRT7 = 0x1, unprogrammed default
  2823  300006                     	org	3145734
  2824  300006  FF                 	db	255
  2825                           
  2826                           ;Config register CONFIG4H @ 0x300007
  2827                           ;	Configuration Register Write Protection bit
  2828                           ;	WRTC = 0x1, unprogrammed default
  2829                           ;	Boot Block Write Protection bit
  2830                           ;	WRTB = 0x1, unprogrammed default
  2831                           ;	Data EEPROM Write Protection bit
  2832                           ;	WRTD = 0x1, unprogrammed default
  2833                           ;	Scanner Enable bit
  2834                           ;	SCANE = 0x1, unprogrammed default
  2835                           ;	Low Voltage Programming Enable bit
  2836                           ;	LVP = ON, Low voltage programming enabled. MCLR/VPP pin function is MCLR. MCLRE config
      +                          uration bit is ignored
  2837  300007                     	org	3145735
  2838  300007  FF                 	db	255
  2839                           
  2840                           ;Config register CONFIG5L @ 0x300008
  2841                           ;	unspecified, using default values
  2842                           ;	UserNVM Program Memory Code Protection bit
  2843                           ;	CP = 0x1, unprogrammed default
  2844                           ;	DataNVM Memory Code Protection bit
  2845                           ;	CPD = 0x1, unprogrammed default
  2846  300008                     	org	3145736
  2847  300008  FF                 	db	255
  2848                           
  2849                           ;Config register CONFIG5H @ 0x300009
  2850                           ;	unspecified, using default values
  2851  300009                     	org	3145737
  2852  300009  FF                 	db	255
  2853                           
  2854                           ;Config register CONFIG6L @ 0x30000A
  2855                           ;	unspecified, using default values
  2856                           ;	Table Read Protection Block 0
  2857                           ;	EBTR0 = 0x1, unprogrammed default
  2858                           ;	Table Read Protection Block 1
  2859                           ;	EBTR1 = 0x1, unprogrammed default
  2860                           ;	Table Read Protection Block 2
  2861                           ;	EBTR2 = 0x1, unprogrammed default
  2862                           ;	Table Read Protection Block 3
  2863                           ;	EBTR3 = 0x1, unprogrammed default
  2864                           ;	Table Read Protection Block 4
  2865                           ;	EBTR4 = 0x1, unprogrammed default
  2866                           ;	Table Read Protection Block 5
  2867                           ;	EBTR5 = 0x1, unprogrammed default
  2868                           ;	Table Read Protection Block 6
  2869                           ;	EBTR6 = 0x1, unprogrammed default
  2870                           ;	Table Read Protection Block 7
  2871                           ;	EBTR7 = 0x1, unprogrammed default
  2872  30000A                     	org	3145738
  2873  30000A  FF                 	db	255
  2874                           
  2875                           ;Config register CONFIG6H @ 0x30000B
  2876                           ;	unspecified, using default values
  2877                           ;	Boot Block Table Read Protection bit
  2878                           ;	EBTRB = 0x1, unprogrammed default
  2879  30000B                     	org	3145739
  2880  30000B  FF                 	db	255
  2881                           tosu	equ	0xFFF
  2882                           tosh	equ	0xFFE
  2883                           tosl	equ	0xFFD
  2884                           stkptr	equ	0xFFC
  2885                           pclatu	equ	0xFFB
  2886                           pclath	equ	0xFFA
  2887                           pcl	equ	0xFF9
  2888                           tblptru	equ	0xFF8
  2889                           tblptrh	equ	0xFF7
  2890                           tblptrl	equ	0xFF6
  2891                           tablat	equ	0xFF5
  2892                           prodh	equ	0xFF4
  2893                           prodl	equ	0xFF3
  2894                           indf0	equ	0xFEF
  2895                           postinc0	equ	0xFEE
  2896                           postdec0	equ	0xFED
  2897                           preinc0	equ	0xFEC
  2898                           plusw0	equ	0xFEB
  2899                           fsr0h	equ	0xFEA
  2900                           fsr0l	equ	0xFE9
  2901                           wreg	equ	0xFE8
  2902                           indf1	equ	0xFE7
  2903                           postinc1	equ	0xFE6
  2904                           postdec1	equ	0xFE5
  2905                           preinc1	equ	0xFE4
  2906                           plusw1	equ	0xFE3
  2907                           fsr1h	equ	0xFE2
  2908                           fsr1l	equ	0xFE1
  2909                           bsr	equ	0xFE0
  2910                           indf2	equ	0xFDF
  2911                           postinc2	equ	0xFDE
  2912                           postdec2	equ	0xFDD
  2913                           preinc2	equ	0xFDC
  2914                           plusw2	equ	0xFDB
  2915                           fsr2h	equ	0xFDA
  2916                           fsr2l	equ	0xFD9
  2917                           status	equ	0xFD8

Data Sizes:
    Strings     0
    Constant    0
    Data        0
    BSS         0
    Persistent  0
    Stack       0

Auto Spaces:
    Space          Size  Autos    Used
    COMRAM           95     48      48
    BANK0           160      0       0
    BANK1           256      0       0
    BANK2           256      0       0
    BANK3           256      0       0
    BANK4           256      0       0
    BANK5           256      0       0
    BANK6           256      0       0
    BANK7           256      0       0
    BANK8           256      0       0
    BANK9           256      0       0
    BANK10          256      0       0
    BANK11          256      0       0
    BANK12          256      0       0
    BANK13          256      0       0
    BANK14           31      0       0

Pointer List with Targets:

    None.

Critical Paths under _main in COMRAM

    _main->___fldiv
    ___fldiv->___xxtofl
    _I2C1_write1ByteRegister->_I2C1_sendData
    _I2C1_read2ByteRegister->_I2C1_readData
    _I2C1_read2ByteRegister->_I2C1_sendData

Critical Paths under _main in BANK0

    None.

Critical Paths under _main in BANK1

    None.

Critical Paths under _main in BANK2

    None.

Critical Paths under _main in BANK3

    None.

Critical Paths under _main in BANK4

    None.

Critical Paths under _main in BANK5

    None.

Critical Paths under _main in BANK6

    None.

Critical Paths under _main in BANK7

    None.

Critical Paths under _main in BANK8

    None.

Critical Paths under _main in BANK9

    None.

Critical Paths under _main in BANK10

    None.

Critical Paths under _main in BANK11

    None.

Critical Paths under _main in BANK12

    None.

Critical Paths under _main in BANK13

    None.

Critical Paths under _main in BANK14

    None.

Call Graph Tables:

 ---------------------------------------------------------------------------------
 (Depth) Function   	        Calls       Base Space   Used Autos Params    Refs
 ---------------------------------------------------------------------------------
 (0) _main                                                 9     9      0    2365
                                             39 COMRAM     9     9      0
                     _CLK_Initialize
                    _I2C1_Initialize
             _I2C1_read2ByteRegister
            _I2C1_write1ByteRegister
                    _PORT_Initialize
                     _PPS_Initialize
                            ___fldiv
                           ___xxtofl
 ---------------------------------------------------------------------------------
 (1) ___xxtofl                                            14    10      4     398
                                              0 COMRAM    14    10      4
 ---------------------------------------------------------------------------------
 (1) ___fldiv                                             25    17      8    1399
                                             14 COMRAM    25    17      8
                           ___xxtofl (ARG)
 ---------------------------------------------------------------------------------
 (1) _PPS_Initialize                                       0     0      0       0
 ---------------------------------------------------------------------------------
 (1) _PORT_Initialize                                      0     0      0       0
 ---------------------------------------------------------------------------------
 (1) _I2C1_write1ByteRegister                              4     2      2     256
                                              1 COMRAM     4     2      2
                         _I2C1_close
                 _I2C1_getAckstatBit
                          _I2C1_open
                      _I2C1_sendData
                _I2C1_startCondition
                 _I2C1_stopCondition
 ---------------------------------------------------------------------------------
 (1) _I2C1_read2ByteRegister                               9     7      2     288
                                              1 COMRAM     9     7      2
                         _I2C1_close
                 _I2C1_getAckstatBit
                          _I2C1_open
                      _I2C1_readData
               _I2C1_sendAcknowledge
                      _I2C1_sendData
            _I2C1_sendNotAcknowledge
                _I2C1_setRecieveMode
                _I2C1_startCondition
                 _I2C1_stopCondition
 ---------------------------------------------------------------------------------
 (2) _I2C1_stopCondition                                   0     0      0       0
          _I2C1_interruptFlagPolling
 ---------------------------------------------------------------------------------
 (2) _I2C1_startCondition                                  0     0      0       0
          _I2C1_interruptFlagPolling
 ---------------------------------------------------------------------------------
 (2) _I2C1_setRecieveMode                                  0     0      0       0
 ---------------------------------------------------------------------------------
 (2) _I2C1_sendNotAcknowledge                              0     0      0       0
          _I2C1_interruptFlagPolling
 ---------------------------------------------------------------------------------
 (2) _I2C1_sendData                                        1     1      0      15
                                              0 COMRAM     1     1      0
          _I2C1_interruptFlagPolling
 ---------------------------------------------------------------------------------
 (2) _I2C1_sendAcknowledge                                 0     0      0       0
          _I2C1_interruptFlagPolling
 ---------------------------------------------------------------------------------
 (2) _I2C1_readData                                        1     1      0      15
                                              0 COMRAM     1     1      0
          _I2C1_interruptFlagPolling
 ---------------------------------------------------------------------------------
 (3) _I2C1_interruptFlagPolling                            0     0      0       0
 ---------------------------------------------------------------------------------
 (2) _I2C1_open                                            0     0      0       0
 ---------------------------------------------------------------------------------
 (2) _I2C1_getAckstatBit                                   0     0      0       0
 ---------------------------------------------------------------------------------
 (2) _I2C1_close                                           0     0      0       0
 ---------------------------------------------------------------------------------
 (1) _I2C1_Initialize                                      0     0      0       0
 ---------------------------------------------------------------------------------
 (1) _CLK_Initialize                                       0     0      0       0
 ---------------------------------------------------------------------------------
 Estimated maximum stack depth 3
 ---------------------------------------------------------------------------------

 Call Graph Graphs:

 _main (ROOT)
   _CLK_Initialize
   _I2C1_Initialize
   _I2C1_read2ByteRegister
     _I2C1_close
     _I2C1_getAckstatBit
     _I2C1_open
     _I2C1_readData
       _I2C1_interruptFlagPolling
     _I2C1_sendAcknowledge
       _I2C1_interruptFlagPolling
     _I2C1_sendData
       _I2C1_interruptFlagPolling
     _I2C1_sendNotAcknowledge
       _I2C1_interruptFlagPolling
     _I2C1_setRecieveMode
     _I2C1_startCondition
       _I2C1_interruptFlagPolling
     _I2C1_stopCondition
       _I2C1_interruptFlagPolling
   _I2C1_write1ByteRegister
     _I2C1_close
     _I2C1_getAckstatBit
     _I2C1_open
     _I2C1_sendData
       _I2C1_interruptFlagPolling
     _I2C1_startCondition
       _I2C1_interruptFlagPolling
     _I2C1_stopCondition
       _I2C1_interruptFlagPolling
   _PORT_Initialize
   _PPS_Initialize
   ___fldiv
     ___xxtofl (ARG)
   ___xxtofl

 Address spaces:
Name               Size   Autos  Total    Cost      Usage
BITCOMRAM           5F      0       0       0        0.0%
EEDATA             400      0       0       0        0.0%
NULL                 0      0       0       0        0.0%
CODE                 0      0       0       0        0.0%
COMRAM              5F     30      30       1       50.5%
STACK                0      0       0       2        0.0%
DATA                 0      0       0       3        0.0%
BITBANK0            A0      0       0       4        0.0%
BANK0               A0      0       0       5        0.0%
ABS                  0      0       0       6        0.0%
BITBANK1           100      0       0       7        0.0%
BANK1              100      0       0       8        0.0%
BITBANK2           100      0       0       9        0.0%
BANK2              100      0       0      10        0.0%
BITBANK3           100      0       0      11        0.0%
BANK3              100      0       0      12        0.0%
BITBANK4           100      0       0      13        0.0%
BANK4              100      0       0      14        0.0%
BITBANK5           100      0       0      15        0.0%
BANK5              100      0       0      16        0.0%
BITBANK6           100      0       0      17        0.0%
BANK6              100      0       0      18        0.0%
BITBANK7           100      0       0      19        0.0%
BANK7              100      0       0      20        0.0%
BITBANK8           100      0       0      21        0.0%
BANK8              100      0       0      22        0.0%
BITBANK9           100      0       0      23        0.0%
BANK9              100      0       0      24        0.0%
BITBANK10          100      0       0      25        0.0%
BANK10             100      0       0      26        0.0%
BITBANK11          100      0       0      27        0.0%
BANK11             100      0       0      28        0.0%
BITBANK12          100      0       0      29        0.0%
BANK12             100      0       0      30        0.0%
BITBANK13          100      0       0      31        0.0%
BANK13             100      0       0      32        0.0%
BITBANK14           1F      0       0      33        0.0%
BANK14              1F      0       0      34        0.0%
BIGRAM             E1E      0       0      35        0.0%
BITSFR_2             0      0       0     200        0.0%
SFR_2                0      0       0     200        0.0%
BITSFR_1             0      0       0     200        0.0%
SFR_1                0      0       0     200        0.0%
BITSFR               0      0       0     200        0.0%
SFR                  0      0       0     200        0.0%


Microchip Technology PIC18 Macro Assembler V2.31 build 20201012212115 
Symbol Table                                                                                   Wed Jun 30 09:26:43 2021

                       ___fldiv@aexp 0027                         ___fldiv@bexp 0026  
                       ___fldiv@sign 001F                                   l33 F89C  
                                 l42 F84A                                   l51 F852  
                                 l60 F862                                   l36 F8E8  
                                 l45 F8C2                                   l54 F838  
                                 l47 F8D2                                   l63 F88E  
                                 l39 F8AC                                   l72 F8C0  
                                 l48 F8D4                                   l57 F85A  
                                 l66 F83C                                   l82 F95E  
                                 l75 F86C                                   l69 F882  
                                 l78 F876                                   l88 FAB0  
                                 u10 F8D2                                   u11 F8CE  
                                 u20 F8BE                                   u21 F8B8  
                                 u26 F8C0                     ??_CLK_Initialize 0001  
                                l802 F8AE                                  l810 F86E  
                                l812 F872                                  l820 F89E  
                                l814 F890                                  l822 F844  
                                l806 F864                                  l816 F89A  
                                l824 F846                                  l808 F868  
                                l818 F8D6                                  l770 FBFC  
                                l683 FFFE                                  l763 FBA0  
                                l780 F854                                  l756 FB08  
                                l685 FE5E                                  l774 F8C2  
                                l790 F88A                                  l782 F856  
                                l694 FEA4                                  l759 FC64  
                                l776 F84C                                  l792 F83A  
                                l784 F85C                                  l696 FF1C  
                                l688 FE22                                  l697 FF0A  
                                l778 F836                                  l794 F878  
                                l786 F85E                                  l796 F87C  
                                l788 F886                                  l798 F880  
                                u500 FC92                                  u501 FC8E  
                                u430 F916                                  u510 FCA2  
                                u431 F912                                  u511 FC9E  
                                u440 F934                                  u600 FE6E  
                                u520 FCE6                                  u441 F930  
                                u601 FE6A                                  u521 FCE2  
                                u450 F952                                  u610 FE84  
                                u530 FCF8                                  u451 F94E  
                                u611 FE80                                  u531 FCF4  
                                u460 FA2E                                  u700 FFBE  
                                u620 FEA2                                  u540 FD08  
                                u461 FA2A                                  u701 FFBA  
                                u621 FE9E                                  u541 FD04  
                                u470 FA54                                  u710 FFEC  
                                u630 FEC2                                  u550 FD48  
                                u471 FA50                                  u711 FFE8  
                                u631 FEBE                                  u551 FD44  
                                u480 FA76                                  u640 FED4  
                                u560 FD88                                  u800 FC44  
                                u720 FAC4                                  u481 FA72  
                                u641 FED0                                  u561 FD84  
                                u801 FC40                                  u721 FAC0  
                                u650 FF02                                  u570 FDFE  
                                u490 FC80                                  u810 FC52  
                                u730 FAD2                                  u651 FEFE  
                                u571 FDFA                                  u491 FC7C  
                                u811 FC4E                                  u731 FACE  
                                u660 FF18                                  u580 FE20  
                                u740 FB2E                                  u661 FF14  
                                u581 FE1C                                  u741 FB2A  
                                u670 FF2C                                  u590 FE4A  
                                u750 FB84                                  u671 FF28  
                                u591 FE46                                  u751 FB80  
                                u680 FF46                                  u760 FBCE  
                                u681 FF42                                  u761 FBCA  
                                u825 F99C                                  u690 FF8E  
                                u770 FBEC                                  u691 FF8A  
                                u771 FBE8                                  u780 FBFC  
                                u781 FBF8                                  u837 F9E8  
                                u790 FC0A                                  u791 FC06  
            _I2C1_write1ByteRegister F8EA         __size_of_I2C1_startCondition 0008  
                                wreg 000FE8                                 l1110 F956  
                               l1102 F91A                                 l1120 FA1A  
                               l1112 F9FE                                 l1200 FD60  
                               l1122 FA2E                                 l1114 FA0C  
                               l1106 F938                                 l1210 FD88  
                               l1202 FD64                                 l1132 FA58  
                               l1116 FA10                                 l1220 FDD6  
                               l1300 FB18                                 l1150 FA8C  
                               l1142 FA7A                                 l1134 FA5C  
                               l1126 FA3A                                 l1118 FA14  
                               l1230 FE20                                 l1222 FDE6  
                               l1214 FD9C                                 l1206 FD78  
                               l1310 FB56                                 l1302 FB2E  
                               l1152 FA9E                                 l1144 FA7E  
                               l1136 FA62                                 l1240 FE6E  
                               l1232 FE2C                                 l1224 FDEE  
                               l1216 FDB6                                 l1208 FD88  
                               l1160 FC80                                 l1320 FBDE  
                               l1312 FB88                                 l1146 FA84  
                               l1090 F8EC                                 l1242 FE84  
                               l1250 FEB4                                 l1234 FE4A  
                               l1226 FDFE                                 l1218 FDC6  
                               l1170 FCB4                                 l1162 FC82  
                               l1330 FC34                                 l1322 FBEC  
                               l1314 FB8A                                 l1306 FB42  
                               l1148 FA88                                 l1092 F8F4  
                               l1252 FEC2                                 l1244 FE8A  
                               l1236 FE4C                                 l1228 FE12  
                               l1180 FCE6                                 l1164 FC92  
                               l1172 FCBC                                 l1156 FC66  
                               l1332 FC44                                 l1324 FC0A  
                               l1316 FB96                                 l1308 FB4A  
                               l1340 F960                                 l1094 F8F8  
                               l1262 FF2C                                 l1270 FF74  
                               l1254 FEC6                                 l1246 FE94  
                               l1238 FE5C                                 l1190 FD1A  
                               l1182 FCE8                                 l1174 FCCC  
                               l1166 FCA2                                 l1158 FC72  
                               l1334 FC52                                 l1326 FC0C  
                               l1318 FBD2                                 l1350 F990  
                               l1342 F968                                 l1096 F8FC  
                               l1280 FFDE                                 l1272 FF8E  
                               l1264 FF38                                 l1256 FED4  
                               l1248 FEA2                                 l1184 FCF8  
                               l1192 FD22                                 l1176 FCD2  
                               l1168 FCB2                                 l1336 FC54  
                               l1328 FC10                                 l1352 F9DE  
                               l1344 F96C                                 l1098 F902  
                               l1282 FFEC                                 l1274 FFA4  
                               l1266 FF46                                 l1258 FF02  
                               l1194 FD32                                 l1186 FD08  
                               l1178 FCD8                                 l1346 F970  
                               l1284 FFF2                                 l1276 FFBE  
                               l1268 FF70                                 l1196 FD48  
                               l1188 FD18                                 l1348 F97E  
                               l1286 FFF4                                 l1278 FFDA  
                               l1198 FD58                                 l1294 FAB4  
                               l1296 FAC4                                 l1298 FAD2  
                               _main F960                                 start 0000  
                    ___fldiv@new_exp 0020                      ?_PPS_Initialize 0001  
                       ___param_bank 000000      __end_of_I2C1_sendNotAcknowledge F878  
                              ?_main 0001                      __end_of___fldiv 0000  
                    ??_I2C1_readData 0001                    __end_of_I2C1_open F854  
                    ??_I2C1_sendData 0001                    ??_I2C1_Initialize 0001  
       __size_of_I2C1_setRecieveMode 0004                    I2C1_readData@data 0001  
        ??_I2C1_interruptFlagPolling 0001          __size_of_I2C1_stopCondition 0008  
         I2C1_write1ByteRegister@reg 0002                                status 000FD8  
                  ??_PORT_Initialize 0001                      __initialization F83E  
       __end_of_I2C1_sendAcknowledge F86E                         ??_I2C1_close 0001  
                       __end_of_main F9FC   I2C1_read2ByteRegister@writeAddress 0006  
          ??_I2C1_write1ByteRegister 0004                               ??_main 0028  
                      __activetblptr 000000  I2C1_write1ByteRegister@writeAddress 0005  
                 __end_of_I2C1_close F83A                               _RB1PPS 000EEB  
                             _RB2PPS 000EEC        I2C1_read2ByteRegister@address 000A  
                   __end_of___xxtofl FC66            _I2C1_interruptFlagPolling F8C2  
                          ??___fldiv 0017          I2C1_write1ByteRegister@data 0003  
                 _I2C1_getAckstatBit F8AE     __size_of_I2C1_sendNotAcknowledge 000A  
                       ___xxtofl@arg 000B                         ___xxtofl@exp 000A  
                       ___xxtofl@val 0001                           __accesstop 0060  
            __end_of__initialization F83E                  ?_I2C1_getAckstatBit 0001  
                      ___rparam_used 000001            I2C1_read2ByteRegister@reg 0002  
                _I2C1_startCondition F854                       __pcstackCOMRAM 0001  
               ??_I2C1_getAckstatBit 0001                 ?_I2C1_startCondition 0001  
               _I2C1_sendAcknowledge F864                     ??_PPS_Initialize 0001  
                _I2C1_setRecieveMode F83A                      _I2C1_Initialize F844  
              ??_I2C1_startCondition 0001                            ?___xxtofl 0001  
                    _PORT_Initialize F89E                            _I2C1_open F84C  
                            _SSP1ADD 000F92                 ?_I2C1_setRecieveMode 0001  
              ?_I2C1_sendAcknowledge 0001                              _SSP1BUF 000F91  
                  I2C1_sendData@byte 0001                              __Hparam 0000  
                            __Lparam 0000                              ___fldiv FC66  
                            __pcinit F83E                              __ramtop 0F00  
           ??_I2C1_read2ByteRegister 0004                              __ptext0 F960  
                            __ptext1 FAB2                              __ptext2 FC66  
                            __ptext3 F8D6                              __ptext4 F89E  
                            __ptext5 F8EA                              __ptext6 F9FC  
                            __ptext7 F85C                              __ptext8 F854  
                            __ptext9 F83A                           ??___xxtofl 0005  
              __end_of_I2C1_readData F884                ??_I2C1_setRecieveMode 0001  
                         ?_I2C1_open 0001              __size_of_CLK_Initialize 000E  
            _I2C1_sendNotAcknowledge F86E                __end_of_I2C1_sendData F890  
         __end_of_I2C1_stopCondition F864                 end_of_initialization F83E  
     I2C1_write1ByteRegister@address 0004              __end_of_I2C1_Initialize F84C  
            __end_of_PORT_Initialize F8AE                        ___xxtofl@sign 0009  
             ??_I2C1_sendAcknowledge 0001                          ___fldiv@grs 0022  
                        ___fldiv@rem 001B             ?_I2C1_write1ByteRegister 0002  
    __size_of_I2C1_read2ByteRegister 00B6            ??_I2C1_sendNotAcknowledge 0001  
                start_initialization F83E                          ??_I2C1_open 0001  
                   ?_I2C1_Initialize 0001                     main@rawTempValue 002F  
        __size_of_I2C1_getAckstatBit 0014                     ?_PORT_Initialize 0001  
                          ___fldiv@a 0013                            ___fldiv@b 000F  
                     _CLK_Initialize F890                    __size_of___xxtofl 01B4  
             _I2C1_read2ByteRegister F9FC      __end_of_I2C1_write1ByteRegister F960  
                           ?___fldiv 000F          __end_of_I2C1_startCondition F85C  
             __end_of_CLK_Initialize F89E                             _PIR3bits 000EC8  
                 _I2C1_stopCondition F85C                           _I2C1_close F836  
            __size_of_PPS_Initialize 0014                  ?_I2C1_stopCondition 0001  
        __end_of_I2C1_setRecieveMode F83E                      ?_CLK_Initialize 0001  
                           _WPUBbits 000F13                 ??_I2C1_stopCondition 0001  
                           __Hrparam 0000                             __Lrparam 0000  
             __size_of_I2C1_readData 000C               __size_of_I2C1_sendData 000C  
                   __size_of___fldiv 039A                           _ANSELBbits 000F14  
                           ___xxtofl FAB2     __size_of_I2C1_write1ByteRegister 0076  
 __size_of_I2C1_interruptFlagPolling 0014                             __ptext10 F86E  
                           __ptext11 F884                             __ptext12 F864  
                           __ptext13 F878                             __ptext14 F8C2  
                           __ptext15 F84C                             __ptext16 F8AE  
                           __ptext17 F836                             __ptext18 F844  
                           __ptext19 F890                         _SSP1CON1bits 000F95  
         ?_I2C1_interruptFlagPolling 0001        __size_of_I2C1_sendAcknowledge 000A  
                       _SSP1CON2bits 000F96                          _OSCCON1bits 000ED3  
                      __size_of_main 009C                          ?_I2C1_close 0001  
                         _ODCONBbits 000F12                        _I2C1_readData F878  
            ?_I2C1_read2ByteRegister 0002                        _I2C1_sendData F884  
  __end_of_I2C1_interruptFlagPolling F8D6                           _OSCFRQbits 000ED9  
                     _PPS_Initialize F8D6           __end_of_I2C1_getAckstatBit F8C2  
           ?_I2C1_sendNotAcknowledge 0001             __size_of_I2C1_Initialize 0008  
     I2C1_read2ByteRegister@dataRead 0008                           _SSP1DATPPS 000EB3  
                         _SSP1CLKPPS 000EB2                       ?_I2C1_readData 0001  
     __end_of_I2C1_read2ByteRegister FAB2                       ?_I2C1_sendData 0001  
           __size_of_PORT_Initialize 0010                  __size_of_I2C1_close 0004  
                 __size_of_I2C1_open 0008    I2C1_read2ByteRegister@readAddress 0007  
             __end_of_PPS_Initialize F8EA  
